ARM GAS  /tmp/ccvkeGpn.s 			page 1


   1              		.syntax unified
   2              		.cpu cortex-m4
   3              		.fpu softvfp
   4              		.eabi_attribute 20, 1
   5              		.eabi_attribute 21, 1
   6              		.eabi_attribute 23, 3
   7              		.eabi_attribute 24, 1
   8              		.eabi_attribute 25, 1
   9              		.eabi_attribute 26, 1
  10              		.eabi_attribute 30, 2
  11              		.eabi_attribute 34, 1
  12              		.eabi_attribute 18, 4
  13              		.thumb
  14              		.file	"chevents.c"
  15              		.text
  16              	.Ltext0:
  17              		.cfi_sections	.debug_frame
  18              		.section	.text.chEvtRegisterMask,"ax",%progbits
  19              		.align	2
  20              		.p2align 4,,15
  21              		.global	chEvtRegisterMask
  22              		.thumb
  23              		.thumb_func
  24              		.type	chEvtRegisterMask, %function
  25              	chEvtRegisterMask:
  26              	.LFB7:
  27              		.file 1 "../../os/kernel/src/chevents.c"
  28              		.loc 1 85 0
  29              		.cfi_startproc
  30              		@ args = 0, pretend = 0, frame = 0
  31              		@ frame_needed = 0, uses_anonymous_args = 0
  32              		@ link register save eliminated.
  33              	.LVL0:
  34 0000 30B4     		push	{r4, r5}
  35              		.cfi_def_cfa_offset 8
  36              		.cfi_offset 4, -8
  37              		.cfi_offset 5, -4
  38              	.LBB2:
  39              		.loc 1 89 0
  40 0002 2023     		movs	r3, #32
  41              	@ 89 "../../os/kernel/src/chevents.c" 1
  42 0004 83F31188 		msr     BASEPRI, r3
  43              	@ 0 "" 2
  44              		.thumb
  45              	.LBE2:
  46              		.loc 1 92 0
  47 0008 064C     		ldr	r4, .L2
  48              		.loc 1 90 0
  49 000a 0368     		ldr	r3, [r0]
  50              		.loc 1 92 0
  51 000c A569     		ldr	r5, [r4, #24]
  52              		.loc 1 90 0
  53 000e 0B60     		str	r3, [r1]
  54              		.loc 1 94 0
  55 0010 0024     		movs	r4, #0
  56              		.loc 1 91 0
  57 0012 0160     		str	r1, [r0]
ARM GAS  /tmp/ccvkeGpn.s 			page 2


  58              	.LBB3:
  59              		.loc 1 95 0
  60 0014 2346     		mov	r3, r4
  61              	.LBE3:
  62              		.loc 1 92 0
  63 0016 4D60     		str	r5, [r1, #4]
  64              		.loc 1 93 0
  65 0018 8A60     		str	r2, [r1, #8]
  66              		.loc 1 94 0
  67 001a CC60     		str	r4, [r1, #12]
  68              	.LBB4:
  69              		.loc 1 95 0
  70              	@ 95 "../../os/kernel/src/chevents.c" 1
  71 001c 83F31188 		msr     BASEPRI, r3
  72              	@ 0 "" 2
  73              		.thumb
  74              	.LBE4:
  75              		.loc 1 96 0
  76 0020 30BC     		pop	{r4, r5}
  77 0022 7047     		bx	lr
  78              	.L3:
  79              		.align	2
  80              	.L2:
  81 0024 00000000 		.word	rlist
  82              		.cfi_endproc
  83              	.LFE7:
  84              		.size	chEvtRegisterMask, .-chEvtRegisterMask
  85 0028 AFF30080 		.section	.text.chEvtUnregister,"ax",%progbits
  85      AFF30080 
  86              		.align	2
  87              		.p2align 4,,15
  88              		.global	chEvtUnregister
  89              		.thumb
  90              		.thumb_func
  91              		.type	chEvtUnregister, %function
  92              	chEvtUnregister:
  93              	.LFB8:
  94              		.loc 1 111 0
  95              		.cfi_startproc
  96              		@ args = 0, pretend = 0, frame = 0
  97              		@ frame_needed = 0, uses_anonymous_args = 0
  98              		@ link register save eliminated.
  99              	.LVL1:
 100              	.LBB5:
 101              		.loc 1 117 0
 102 0000 2023     		movs	r3, #32
 103              	@ 117 "../../os/kernel/src/chevents.c" 1
 104 0002 83F31188 		msr     BASEPRI, r3
 105              	@ 0 "" 2
 106              		.thumb
 107              	.LBE5:
 108              		.loc 1 116 0
 109 0006 0246     		mov	r2, r0
 110              		.loc 1 118 0
 111 0008 02E0     		b	.L5
 112              	.LVL2:
 113              	.L8:
ARM GAS  /tmp/ccvkeGpn.s 			page 3


 114              		.loc 1 119 0
 115 000a 9942     		cmp	r1, r3
 116 000c 07D0     		beq	.L10
 117 000e 1A46     		mov	r2, r3
 118              	.LVL3:
 119              	.L5:
 120              		.loc 1 118 0 discriminator 1
 121 0010 1368     		ldr	r3, [r2]
 122 0012 8342     		cmp	r3, r0
 123 0014 F9D1     		bne	.L8
 124              	.LBB6:
 125              		.loc 1 125 0
 126 0016 0023     		movs	r3, #0
 127              	@ 125 "../../os/kernel/src/chevents.c" 1
 128 0018 83F31188 		msr     BASEPRI, r3
 129              	@ 0 "" 2
 130              		.thumb
 131 001c 7047     		bx	lr
 132              	.L10:
 133              	.LBE6:
 134              		.loc 1 120 0
 135 001e 0B68     		ldr	r3, [r1]
 136 0020 1360     		str	r3, [r2]
 137              	.LBB7:
 138              		.loc 1 125 0
 139 0022 0023     		movs	r3, #0
 140              	@ 125 "../../os/kernel/src/chevents.c" 1
 141 0024 83F31188 		msr     BASEPRI, r3
 142              	@ 0 "" 2
 143              		.thumb
 144 0028 7047     		bx	lr
 145              	.LBE7:
 146              		.cfi_endproc
 147              	.LFE8:
 148              		.size	chEvtUnregister, .-chEvtUnregister
 149 002a 00BFAFF3 		.section	.text.chEvtGetAndClearEvents,"ax",%progbits
 149      0080
 150              		.align	2
 151              		.p2align 4,,15
 152              		.global	chEvtGetAndClearEvents
 153              		.thumb
 154              		.thumb_func
 155              		.type	chEvtGetAndClearEvents, %function
 156              	chEvtGetAndClearEvents:
 157              	.LFB9:
 158              		.loc 1 136 0
 159              		.cfi_startproc
 160              		@ args = 0, pretend = 0, frame = 0
 161              		@ frame_needed = 0, uses_anonymous_args = 0
 162              		@ link register save eliminated.
 163              	.LVL4:
 164              	.LBB8:
 165              		.loc 1 139 0
 166 0000 2023     		movs	r3, #32
 167              	@ 139 "../../os/kernel/src/chevents.c" 1
 168 0002 83F31188 		msr     BASEPRI, r3
 169              	@ 0 "" 2
ARM GAS  /tmp/ccvkeGpn.s 			page 4


 170              		.thumb
 171              	.LBE8:
 172              		.loc 1 141 0
 173 0006 054B     		ldr	r3, .L12
 174 0008 9B69     		ldr	r3, [r3, #24]
 175 000a 9A6B     		ldr	r2, [r3, #56]
 176              	.LVL5:
 177              		.loc 1 142 0
 178 000c 22EA0001 		bic	r1, r2, r0
 179 0010 9963     		str	r1, [r3, #56]
 180              	.LBB9:
 181              		.loc 1 144 0
 182 0012 0023     		movs	r3, #0
 183              	@ 144 "../../os/kernel/src/chevents.c" 1
 184 0014 83F31188 		msr     BASEPRI, r3
 185              	@ 0 "" 2
 186              		.thumb
 187              	.LBE9:
 188              		.loc 1 146 0
 189 0018 1040     		ands	r0, r0, r2
 190              	.LVL6:
 191 001a 7047     		bx	lr
 192              	.L13:
 193              		.align	2
 194              	.L12:
 195 001c 00000000 		.word	rlist
 196              		.cfi_endproc
 197              	.LFE9:
 198              		.size	chEvtGetAndClearEvents, .-chEvtGetAndClearEvents
 199              		.section	.text.chEvtAddEvents,"ax",%progbits
 200              		.align	2
 201              		.p2align 4,,15
 202              		.global	chEvtAddEvents
 203              		.thumb
 204              		.thumb_func
 205              		.type	chEvtAddEvents, %function
 206              	chEvtAddEvents:
 207              	.LFB10:
 208              		.loc 1 157 0
 209              		.cfi_startproc
 210              		@ args = 0, pretend = 0, frame = 0
 211              		@ frame_needed = 0, uses_anonymous_args = 0
 212              		@ link register save eliminated.
 213              	.LVL7:
 214              	.LBB10:
 215              		.loc 1 159 0
 216 0000 2023     		movs	r3, #32
 217              	@ 159 "../../os/kernel/src/chevents.c" 1
 218 0002 83F31188 		msr     BASEPRI, r3
 219              	@ 0 "" 2
 220              		.thumb
 221              	.LBE10:
 222              		.loc 1 161 0
 223 0006 044B     		ldr	r3, .L15
 224 0008 9B69     		ldr	r3, [r3, #24]
 225 000a 9A6B     		ldr	r2, [r3, #56]
 226 000c 1043     		orrs	r0, r0, r2
ARM GAS  /tmp/ccvkeGpn.s 			page 5


 227              	.LVL8:
 228 000e 9863     		str	r0, [r3, #56]
 229              	.LVL9:
 230              	.LBB11:
 231              		.loc 1 163 0
 232 0010 0023     		movs	r3, #0
 233              	@ 163 "../../os/kernel/src/chevents.c" 1
 234 0012 83F31188 		msr     BASEPRI, r3
 235              	@ 0 "" 2
 236              		.thumb
 237              	.LBE11:
 238              		.loc 1 165 0
 239 0016 7047     		bx	lr
 240              	.L16:
 241              		.align	2
 242              	.L15:
 243 0018 00000000 		.word	rlist
 244              		.cfi_endproc
 245              	.LFE10:
 246              		.size	chEvtAddEvents, .-chEvtAddEvents
 247 001c AFF30080 		.section	.text.chEvtGetAndClearFlags,"ax",%progbits
 248              		.align	2
 249              		.p2align 4,,15
 250              		.global	chEvtGetAndClearFlags
 251              		.thumb
 252              		.thumb_func
 253              		.type	chEvtGetAndClearFlags, %function
 254              	chEvtGetAndClearFlags:
 255              	.LFB12:
 256              		.loc 1 209 0
 257              		.cfi_startproc
 258              		@ args = 0, pretend = 0, frame = 0
 259              		@ frame_needed = 0, uses_anonymous_args = 0
 260              		@ link register save eliminated.
 261              	.LVL10:
 262              		.loc 1 209 0
 263 0000 0246     		mov	r2, r0
 264              	.LBB12:
 265              		.loc 1 212 0
 266 0002 2023     		movs	r3, #32
 267              	@ 212 "../../os/kernel/src/chevents.c" 1
 268 0004 83F31188 		msr     BASEPRI, r3
 269              	@ 0 "" 2
 270              		.thumb
 271              	.LBE12:
 272              		.loc 1 215 0
 273 0008 0023     		movs	r3, #0
 274              		.loc 1 214 0
 275 000a C068     		ldr	r0, [r0, #12]
 276              	.LVL11:
 277              		.loc 1 215 0
 278 000c D360     		str	r3, [r2, #12]
 279              	.LBB13:
 280              		.loc 1 217 0
 281              	@ 217 "../../os/kernel/src/chevents.c" 1
 282 000e 83F31188 		msr     BASEPRI, r3
 283              	@ 0 "" 2
ARM GAS  /tmp/ccvkeGpn.s 			page 6


 284              		.thumb
 285              	.LBE13:
 286              		.loc 1 219 0
 287 0012 7047     		bx	lr
 288              		.cfi_endproc
 289              	.LFE12:
 290              		.size	chEvtGetAndClearFlags, .-chEvtGetAndClearFlags
 291 0014 AFF30080 		.section	.text.chEvtSignalI,"ax",%progbits
 291      AFF30080 
 291      AFF30080 
 292              		.align	2
 293              		.p2align 4,,15
 294              		.global	chEvtSignalI
 295              		.thumb
 296              		.thumb_func
 297              		.type	chEvtSignalI, %function
 298              	chEvtSignalI:
 299              	.LFB14:
 300              		.loc 1 251 0
 301              		.cfi_startproc
 302              		@ args = 0, pretend = 0, frame = 0
 303              		@ frame_needed = 0, uses_anonymous_args = 0
 304              	.LVL12:
 305 0000 08B5     		push	{r3, lr}
 306              		.cfi_def_cfa_offset 8
 307              		.cfi_offset 3, -8
 308              		.cfi_offset 14, -4
 309              		.loc 1 256 0
 310 0002 826B     		ldr	r2, [r0, #56]
 311              		.loc 1 258 0
 312 0004 037F     		ldrb	r3, [r0, #28]	@ zero_extendqisi2
 313              		.loc 1 256 0
 314 0006 1143     		orrs	r1, r1, r2
 315              	.LVL13:
 316              		.loc 1 258 0
 317 0008 082B     		cmp	r3, #8
 318              		.loc 1 256 0
 319 000a 8163     		str	r1, [r0, #56]
 320              		.loc 1 258 0
 321 000c 0BD0     		beq	.L22
 322              		.loc 1 259 0
 323 000e 092B     		cmp	r3, #9
 324 0010 00D0     		beq	.L23
 325              	.L18:
 326 0012 08BD     		pop	{r3, pc}
 327              	.L23:
 328              		.loc 1 261 0
 329 0014 436A     		ldr	r3, [r0, #36]
 330 0016 1940     		ands	r1, r1, r3
 331              		.loc 1 260 0
 332 0018 8B42     		cmp	r3, r1
 333 001a FAD1     		bne	.L18
 334              	.L20:
 335              	.LVL14:
 336              	.LBB16:
 337              	.LBB17:
 338              		.loc 1 262 0
ARM GAS  /tmp/ccvkeGpn.s 			page 7


 339 001c FFF7FEFF 		bl	chSchReadyI
 340              	.LVL15:
 341 0020 0023     		movs	r3, #0
 342 0022 4362     		str	r3, [r0, #36]
 343 0024 08BD     		pop	{r3, pc}
 344              	.LVL16:
 345              	.L22:
 346              	.LBE17:
 347              	.LBE16:
 348              		.loc 1 259 0 discriminator 1
 349 0026 436A     		ldr	r3, [r0, #36]
 350              		.loc 1 258 0 discriminator 1
 351 0028 1942     		tst	r1, r3
 352 002a F7D1     		bne	.L20
 353 002c 08BD     		pop	{r3, pc}
 354              		.cfi_endproc
 355              	.LFE14:
 356              		.size	chEvtSignalI, .-chEvtSignalI
 357 002e 00BF     		.section	.text.chEvtBroadcastFlagsI,"ax",%progbits
 358              		.align	2
 359              		.p2align 4,,15
 360              		.global	chEvtBroadcastFlagsI
 361              		.thumb
 362              		.thumb_func
 363              		.type	chEvtBroadcastFlagsI, %function
 364              	chEvtBroadcastFlagsI:
 365              	.LFB11:
 366              		.loc 1 184 0
 367              		.cfi_startproc
 368              		@ args = 0, pretend = 0, frame = 0
 369              		@ frame_needed = 0, uses_anonymous_args = 0
 370              	.LVL17:
 371 0000 70B5     		push	{r4, r5, r6, lr}
 372              		.cfi_def_cfa_offset 16
 373              		.cfi_offset 4, -16
 374              		.cfi_offset 5, -12
 375              		.cfi_offset 6, -8
 376              		.cfi_offset 14, -4
 377              		.loc 1 190 0
 378 0002 0468     		ldr	r4, [r0]
 379              	.LVL18:
 380              		.loc 1 191 0
 381 0004 A042     		cmp	r0, r4
 382              		.loc 1 184 0
 383 0006 0546     		mov	r5, r0
 384 0008 0E46     		mov	r6, r1
 385              		.loc 1 191 0
 386 000a 08D0     		beq	.L24
 387              	.LVL19:
 388              	.L27:
 389              		.loc 1 193 0
 390 000c 201D     		adds	r0, r4, #4
 391 000e 0BC8     		ldmia	r0, {r0, r1, r3}
 392              		.loc 1 192 0
 393 0010 3343     		orrs	r3, r3, r6
 394 0012 E360     		str	r3, [r4, #12]
 395              		.loc 1 193 0
ARM GAS  /tmp/ccvkeGpn.s 			page 8


 396 0014 FFF7FEFF 		bl	chEvtSignalI
 397              	.LVL20:
 398              		.loc 1 194 0
 399 0018 2468     		ldr	r4, [r4]
 400              	.LVL21:
 401              		.loc 1 191 0
 402 001a A542     		cmp	r5, r4
 403 001c F6D1     		bne	.L27
 404              	.L24:
 405 001e 70BD     		pop	{r4, r5, r6, pc}
 406              		.cfi_endproc
 407              	.LFE11:
 408              		.size	chEvtBroadcastFlagsI, .-chEvtBroadcastFlagsI
 409              		.section	.text.chEvtSignal,"ax",%progbits
 410              		.align	2
 411              		.p2align 4,,15
 412              		.global	chEvtSignal
 413              		.thumb
 414              		.thumb_func
 415              		.type	chEvtSignal, %function
 416              	chEvtSignal:
 417              	.LFB13:
 418              		.loc 1 229 0
 419              		.cfi_startproc
 420              		@ args = 0, pretend = 0, frame = 0
 421              		@ frame_needed = 0, uses_anonymous_args = 0
 422              	.LVL22:
 423 0000 08B5     		push	{r3, lr}
 424              		.cfi_def_cfa_offset 8
 425              		.cfi_offset 3, -8
 426              		.cfi_offset 14, -4
 427              	.LBB18:
 428              		.loc 1 233 0
 429 0002 2023     		movs	r3, #32
 430              	@ 233 "../../os/kernel/src/chevents.c" 1
 431 0004 83F31188 		msr     BASEPRI, r3
 432              	@ 0 "" 2
 433              		.thumb
 434              	.LBE18:
 435              		.loc 1 234 0
 436 0008 FFF7FEFF 		bl	chEvtSignalI
 437              	.LVL23:
 438              		.loc 1 235 0
 439 000c FFF7FEFF 		bl	chSchRescheduleS
 440              	.LVL24:
 441              	.LBB19:
 442              		.loc 1 236 0
 443 0010 0023     		movs	r3, #0
 444              	@ 236 "../../os/kernel/src/chevents.c" 1
 445 0012 83F31188 		msr     BASEPRI, r3
 446              	@ 0 "" 2
 447              		.thumb
 448 0016 08BD     		pop	{r3, pc}
 449              	.LBE19:
 450              		.cfi_endproc
 451              	.LFE13:
 452              		.size	chEvtSignal, .-chEvtSignal
ARM GAS  /tmp/ccvkeGpn.s 			page 9


 453 0018 AFF30080 		.section	.text.chEvtBroadcastFlags,"ax",%progbits
 453      AFF30080 
 454              		.align	2
 455              		.p2align 4,,15
 456              		.global	chEvtBroadcastFlags
 457              		.thumb
 458              		.thumb_func
 459              		.type	chEvtBroadcastFlags, %function
 460              	chEvtBroadcastFlags:
 461              	.LFB15:
 462              		.loc 1 278 0
 463              		.cfi_startproc
 464              		@ args = 0, pretend = 0, frame = 0
 465              		@ frame_needed = 0, uses_anonymous_args = 0
 466              	.LVL25:
 467 0000 08B5     		push	{r3, lr}
 468              		.cfi_def_cfa_offset 8
 469              		.cfi_offset 3, -8
 470              		.cfi_offset 14, -4
 471              	.LBB20:
 472              		.loc 1 280 0
 473 0002 2023     		movs	r3, #32
 474              	@ 280 "../../os/kernel/src/chevents.c" 1
 475 0004 83F31188 		msr     BASEPRI, r3
 476              	@ 0 "" 2
 477              		.thumb
 478              	.LBE20:
 479              		.loc 1 281 0
 480 0008 FFF7FEFF 		bl	chEvtBroadcastFlagsI
 481              	.LVL26:
 482              		.loc 1 282 0
 483 000c FFF7FEFF 		bl	chSchRescheduleS
 484              	.LVL27:
 485              	.LBB21:
 486              		.loc 1 283 0
 487 0010 0023     		movs	r3, #0
 488              	@ 283 "../../os/kernel/src/chevents.c" 1
 489 0012 83F31188 		msr     BASEPRI, r3
 490              	@ 0 "" 2
 491              		.thumb
 492 0016 08BD     		pop	{r3, pc}
 493              	.LBE21:
 494              		.cfi_endproc
 495              	.LFE15:
 496              		.size	chEvtBroadcastFlags, .-chEvtBroadcastFlags
 497 0018 AFF30080 		.section	.text.chEvtGetAndClearFlagsI,"ax",%progbits
 497      AFF30080 
 498              		.align	2
 499              		.p2align 4,,15
 500              		.global	chEvtGetAndClearFlagsI
 501              		.thumb
 502              		.thumb_func
 503              		.type	chEvtGetAndClearFlagsI, %function
 504              	chEvtGetAndClearFlagsI:
 505              	.LFB16:
 506              		.loc 1 297 0
 507              		.cfi_startproc
ARM GAS  /tmp/ccvkeGpn.s 			page 10


 508              		@ args = 0, pretend = 0, frame = 0
 509              		@ frame_needed = 0, uses_anonymous_args = 0
 510              		@ link register save eliminated.
 511              	.LVL28:
 512              		.loc 1 297 0
 513 0000 0346     		mov	r3, r0
 514              		.loc 1 301 0
 515 0002 0022     		movs	r2, #0
 516              		.loc 1 300 0
 517 0004 C068     		ldr	r0, [r0, #12]
 518              	.LVL29:
 519              		.loc 1 301 0
 520 0006 DA60     		str	r2, [r3, #12]
 521              		.loc 1 304 0
 522 0008 7047     		bx	lr
 523              		.cfi_endproc
 524              	.LFE16:
 525              		.size	chEvtGetAndClearFlagsI, .-chEvtGetAndClearFlagsI
 526 000a 00BFAFF3 		.section	.text.chEvtDispatch,"ax",%progbits
 526      0080
 527              		.align	2
 528              		.p2align 4,,15
 529              		.global	chEvtDispatch
 530              		.thumb
 531              		.thumb_func
 532              		.type	chEvtDispatch, %function
 533              	chEvtDispatch:
 534              	.LFB17:
 535              		.loc 1 315 0
 536              		.cfi_startproc
 537              		@ args = 0, pretend = 0, frame = 0
 538              		@ frame_needed = 0, uses_anonymous_args = 0
 539              	.LVL30:
 540 0000 F8B5     		push	{r3, r4, r5, r6, r7, lr}
 541              		.cfi_def_cfa_offset 24
 542              		.cfi_offset 3, -24
 543              		.cfi_offset 4, -20
 544              		.cfi_offset 5, -16
 545              		.cfi_offset 6, -12
 546              		.cfi_offset 7, -8
 547              		.cfi_offset 14, -4
 548              		.loc 1 321 0
 549 0002 0D46     		mov	r5, r1
 550              		.loc 1 315 0
 551 0004 0746     		mov	r7, r0
 552              		.loc 1 321 0
 553 0006 89B1     		cbz	r1, .L31
 554              		.loc 1 320 0
 555 0008 0024     		movs	r4, #0
 556              		.loc 1 322 0
 557 000a 0126     		movs	r6, #1
 558 000c 01E0     		b	.L35
 559              	.LVL31:
 560              	.L33:
 561              		.loc 1 329 0
 562 000e 0134     		adds	r4, r4, #1
 563              	.LVL32:
ARM GAS  /tmp/ccvkeGpn.s 			page 11


 564              		.loc 1 321 0
 565 0010 65B1     		cbz	r5, .L31
 566              	.LVL33:
 567              	.L35:
 568              		.loc 1 322 0
 569 0012 06FA04F3 		lsl	r3, r6, r4
 570 0016 2B42     		tst	r3, r5
 571 0018 F9D0     		beq	.L33
 572              		.loc 1 327 0
 573 001a 57F82420 		ldr	r2, [r7, r4, lsl #2]
 574 001e 2046     		mov	r0, r4
 575              		.loc 1 326 0
 576 0020 25EA0305 		bic	r5, r5, r3
 577              	.LVL34:
 578              		.loc 1 329 0
 579 0024 0134     		adds	r4, r4, #1
 580              	.LVL35:
 581              		.loc 1 327 0
 582 0026 9047     		blx	r2
 583              	.LVL36:
 584              		.loc 1 321 0
 585 0028 002D     		cmp	r5, #0
 586 002a F2D1     		bne	.L35
 587              	.LVL37:
 588              	.L31:
 589 002c F8BD     		pop	{r3, r4, r5, r6, r7, pc}
 590              		.cfi_endproc
 591              	.LFE17:
 592              		.size	chEvtDispatch, .-chEvtDispatch
 593 002e 00BF     		.section	.text.chEvtWaitOne,"ax",%progbits
 594              		.align	2
 595              		.p2align 4,,15
 596              		.global	chEvtWaitOne
 597              		.thumb
 598              		.thumb_func
 599              		.type	chEvtWaitOne, %function
 600              	chEvtWaitOne:
 601              	.LFB18:
 602              		.loc 1 350 0
 603              		.cfi_startproc
 604              		@ args = 0, pretend = 0, frame = 0
 605              		@ frame_needed = 0, uses_anonymous_args = 0
 606              	.LVL38:
 607 0000 38B5     		push	{r3, r4, r5, lr}
 608              		.cfi_def_cfa_offset 16
 609              		.cfi_offset 3, -16
 610              		.cfi_offset 4, -12
 611              		.cfi_offset 5, -8
 612              		.cfi_offset 14, -4
 613              		.loc 1 351 0
 614 0002 0D4B     		ldr	r3, .L44
 615              		.loc 1 350 0
 616 0004 0546     		mov	r5, r0
 617              		.loc 1 351 0
 618 0006 9C69     		ldr	r4, [r3, #24]
 619              	.LVL39:
 620              	.LBB22:
ARM GAS  /tmp/ccvkeGpn.s 			page 12


 621              		.loc 1 354 0
 622 0008 2023     		movs	r3, #32
 623              	@ 354 "../../os/kernel/src/chevents.c" 1
 624 000a 83F31188 		msr     BASEPRI, r3
 625              	@ 0 "" 2
 626              		.thumb
 627              	.LBE22:
 628              		.loc 1 356 0
 629 000e A36B     		ldr	r3, [r4, #56]
 630              	.LVL40:
 631 0010 10EA0302 		ands	r2, r0, r3
 632              	.LVL41:
 633 0014 06D1     		bne	.L43
 634              		.loc 1 357 0
 635 0016 6062     		str	r0, [r4, #36]
 636              		.loc 1 358 0
 637 0018 0820     		movs	r0, #8
 638              	.LVL42:
 639 001a FFF7FEFF 		bl	chSchGoSleepS
 640              	.LVL43:
 641              		.loc 1 359 0
 642 001e A36B     		ldr	r3, [r4, #56]
 643 0020 05EA0302 		and	r2, r5, r3
 644              	.LVL44:
 645              	.L43:
 646              		.loc 1 361 0
 647 0024 5042     		negs	r0, r2
 648 0026 1040     		ands	r0, r0, r2
 649              	.LVL45:
 650              		.loc 1 362 0
 651 0028 23EA0003 		bic	r3, r3, r0
 652 002c A363     		str	r3, [r4, #56]
 653              	.LBB23:
 654              		.loc 1 364 0
 655 002e 0023     		movs	r3, #0
 656              	@ 364 "../../os/kernel/src/chevents.c" 1
 657 0030 83F31188 		msr     BASEPRI, r3
 658              	@ 0 "" 2
 659              		.thumb
 660              	.LBE23:
 661              		.loc 1 366 0
 662 0034 38BD     		pop	{r3, r4, r5, pc}
 663              	.LVL46:
 664              	.L45:
 665 0036 00BF     		.align	2
 666              	.L44:
 667 0038 00000000 		.word	rlist
 668              		.cfi_endproc
 669              	.LFE18:
 670              		.size	chEvtWaitOne, .-chEvtWaitOne
 671 003c AFF30080 		.section	.text.chEvtWaitAny,"ax",%progbits
 672              		.align	2
 673              		.p2align 4,,15
 674              		.global	chEvtWaitAny
 675              		.thumb
 676              		.thumb_func
 677              		.type	chEvtWaitAny, %function
ARM GAS  /tmp/ccvkeGpn.s 			page 13


 678              	chEvtWaitAny:
 679              	.LFB19:
 680              		.loc 1 379 0
 681              		.cfi_startproc
 682              		@ args = 0, pretend = 0, frame = 0
 683              		@ frame_needed = 0, uses_anonymous_args = 0
 684              	.LVL47:
 685 0000 38B5     		push	{r3, r4, r5, lr}
 686              		.cfi_def_cfa_offset 16
 687              		.cfi_offset 3, -16
 688              		.cfi_offset 4, -12
 689              		.cfi_offset 5, -8
 690              		.cfi_offset 14, -4
 691              		.loc 1 380 0
 692 0002 0B4B     		ldr	r3, .L48
 693              		.loc 1 379 0
 694 0004 0546     		mov	r5, r0
 695              		.loc 1 380 0
 696 0006 9C69     		ldr	r4, [r3, #24]
 697              	.LVL48:
 698              	.LBB24:
 699              		.loc 1 383 0
 700 0008 2023     		movs	r3, #32
 701              	@ 383 "../../os/kernel/src/chevents.c" 1
 702 000a 83F31188 		msr     BASEPRI, r3
 703              	@ 0 "" 2
 704              		.thumb
 705              	.LBE24:
 706              		.loc 1 385 0
 707 000e A36B     		ldr	r3, [r4, #56]
 708              	.LVL49:
 709 0010 1840     		ands	r0, r0, r3
 710              	.LVL50:
 711 0012 06D1     		bne	.L47
 712              		.loc 1 387 0
 713 0014 0820     		movs	r0, #8
 714              	.LVL51:
 715              		.loc 1 386 0
 716 0016 6562     		str	r5, [r4, #36]
 717              		.loc 1 387 0
 718 0018 FFF7FEFF 		bl	chSchGoSleepS
 719              	.LVL52:
 720              		.loc 1 388 0
 721 001c A36B     		ldr	r3, [r4, #56]
 722 001e 05EA0300 		and	r0, r5, r3
 723              	.LVL53:
 724              	.L47:
 725              		.loc 1 390 0
 726 0022 23EA0003 		bic	r3, r3, r0
 727 0026 A363     		str	r3, [r4, #56]
 728              	.LBB25:
 729              		.loc 1 392 0
 730 0028 0023     		movs	r3, #0
 731              	@ 392 "../../os/kernel/src/chevents.c" 1
 732 002a 83F31188 		msr     BASEPRI, r3
 733              	@ 0 "" 2
 734              		.thumb
ARM GAS  /tmp/ccvkeGpn.s 			page 14


 735              	.LBE25:
 736              		.loc 1 394 0
 737 002e 38BD     		pop	{r3, r4, r5, pc}
 738              	.LVL54:
 739              	.L49:
 740              		.align	2
 741              	.L48:
 742 0030 00000000 		.word	rlist
 743              		.cfi_endproc
 744              	.LFE19:
 745              		.size	chEvtWaitAny, .-chEvtWaitAny
 746 0034 AFF30080 		.section	.text.chEvtWaitAll,"ax",%progbits
 746      AFF30080 
 746      AFF30080 
 747              		.align	2
 748              		.p2align 4,,15
 749              		.global	chEvtWaitAll
 750              		.thumb
 751              		.thumb_func
 752              		.type	chEvtWaitAll, %function
 753              	chEvtWaitAll:
 754              	.LFB20:
 755              		.loc 1 407 0
 756              		.cfi_startproc
 757              		@ args = 0, pretend = 0, frame = 0
 758              		@ frame_needed = 0, uses_anonymous_args = 0
 759              	.LVL55:
 760 0000 38B5     		push	{r3, r4, r5, lr}
 761              		.cfi_def_cfa_offset 16
 762              		.cfi_offset 3, -16
 763              		.cfi_offset 4, -12
 764              		.cfi_offset 5, -8
 765              		.cfi_offset 14, -4
 766              		.loc 1 408 0
 767 0002 0C4B     		ldr	r3, .L52
 768              		.loc 1 407 0
 769 0004 0446     		mov	r4, r0
 770              		.loc 1 408 0
 771 0006 9D69     		ldr	r5, [r3, #24]
 772              	.LVL56:
 773              	.LBB26:
 774              		.loc 1 410 0
 775 0008 2023     		movs	r3, #32
 776              	@ 410 "../../os/kernel/src/chevents.c" 1
 777 000a 83F31188 		msr     BASEPRI, r3
 778              	@ 0 "" 2
 779              		.thumb
 780              	.LBE26:
 781              		.loc 1 412 0
 782 000e AB6B     		ldr	r3, [r5, #56]
 783 0010 00EA0302 		and	r2, r0, r3
 784 0014 8242     		cmp	r2, r0
 785 0016 04D0     		beq	.L51
 786              		.loc 1 413 0
 787 0018 6862     		str	r0, [r5, #36]
 788              		.loc 1 414 0
 789 001a 0920     		movs	r0, #9
ARM GAS  /tmp/ccvkeGpn.s 			page 15


 790              	.LVL57:
 791 001c FFF7FEFF 		bl	chSchGoSleepS
 792              	.LVL58:
 793 0020 AB6B     		ldr	r3, [r5, #56]
 794              	.L51:
 795              		.loc 1 416 0
 796 0022 23EA0403 		bic	r3, r3, r4
 797 0026 AB63     		str	r3, [r5, #56]
 798              	.LBB27:
 799              		.loc 1 418 0
 800 0028 0023     		movs	r3, #0
 801              	@ 418 "../../os/kernel/src/chevents.c" 1
 802 002a 83F31188 		msr     BASEPRI, r3
 803              	@ 0 "" 2
 804              		.thumb
 805              	.LBE27:
 806              		.loc 1 420 0
 807 002e 2046     		mov	r0, r4
 808 0030 38BD     		pop	{r3, r4, r5, pc}
 809              	.LVL59:
 810              	.L53:
 811 0032 00BF     		.align	2
 812              	.L52:
 813 0034 00000000 		.word	rlist
 814              		.cfi_endproc
 815              	.LFE20:
 816              		.size	chEvtWaitAll, .-chEvtWaitAll
 817 0038 AFF30080 		.section	.text.chEvtWaitOneTimeout,"ax",%progbits
 817      AFF30080 
 818              		.align	2
 819              		.p2align 4,,15
 820              		.global	chEvtWaitOneTimeout
 821              		.thumb
 822              		.thumb_func
 823              		.type	chEvtWaitOneTimeout, %function
 824              	chEvtWaitOneTimeout:
 825              	.LFB21:
 826              		.loc 1 446 0
 827              		.cfi_startproc
 828              		@ args = 0, pretend = 0, frame = 0
 829              		@ frame_needed = 0, uses_anonymous_args = 0
 830              	.LVL60:
 831              		.loc 1 447 0
 832 0000 134B     		ldr	r3, .L60
 833              		.loc 1 446 0
 834 0002 70B5     		push	{r4, r5, r6, lr}
 835              		.cfi_def_cfa_offset 16
 836              		.cfi_offset 4, -16
 837              		.cfi_offset 5, -12
 838              		.cfi_offset 6, -8
 839              		.cfi_offset 14, -4
 840              		.loc 1 446 0
 841 0004 0446     		mov	r4, r0
 842              		.loc 1 447 0
 843 0006 9D69     		ldr	r5, [r3, #24]
 844              	.LVL61:
 845              		.loc 1 446 0
ARM GAS  /tmp/ccvkeGpn.s 			page 16


 846 0008 0846     		mov	r0, r1
 847              	.LVL62:
 848              	.LBB28:
 849              		.loc 1 450 0
 850 000a 2023     		movs	r3, #32
 851              	@ 450 "../../os/kernel/src/chevents.c" 1
 852 000c 83F31188 		msr     BASEPRI, r3
 853              	@ 0 "" 2
 854              		.thumb
 855              	.LBE28:
 856              		.loc 1 452 0
 857 0010 AA6B     		ldr	r2, [r5, #56]
 858              	.LVL63:
 859 0012 14EA0206 		ands	r6, r4, r2
 860              	.LVL64:
 861 0016 0DD1     		bne	.L55
 862              		.loc 1 453 0
 863 0018 19B9     		cbnz	r1, .L56
 864              	.LBB29:
 865              		.loc 1 454 0
 866 001a 0B46     		mov	r3, r1
 867              	@ 454 "../../os/kernel/src/chevents.c" 1
 868 001c 83F31188 		msr     BASEPRI, r3
 869              	@ 0 "" 2
 870              		.thumb
 871              	.LBE29:
 872              		.loc 1 455 0
 873 0020 70BD     		pop	{r4, r5, r6, pc}
 874              	.LVL65:
 875              	.L56:
 876              		.loc 1 457 0
 877 0022 6C62     		str	r4, [r5, #36]
 878              		.loc 1 458 0
 879 0024 0820     		movs	r0, #8
 880              	.LVL66:
 881 0026 FFF7FEFF 		bl	chSchGoSleepTimeoutS
 882              	.LVL67:
 883 002a 0028     		cmp	r0, #0
 884 002c 0BDB     		blt	.L59
 885              		.loc 1 462 0
 886 002e AA6B     		ldr	r2, [r5, #56]
 887 0030 04EA0206 		and	r6, r4, r2
 888              	.LVL68:
 889              	.L55:
 890              		.loc 1 464 0
 891 0034 7042     		negs	r0, r6
 892 0036 3040     		ands	r0, r0, r6
 893              	.LVL69:
 894              		.loc 1 465 0
 895 0038 22EA0002 		bic	r2, r2, r0
 896 003c AA63     		str	r2, [r5, #56]
 897              	.LBB30:
 898              		.loc 1 467 0
 899 003e 0023     		movs	r3, #0
 900              	@ 467 "../../os/kernel/src/chevents.c" 1
 901 0040 83F31188 		msr     BASEPRI, r3
 902              	@ 0 "" 2
ARM GAS  /tmp/ccvkeGpn.s 			page 17


 903              		.thumb
 904              	.LBE30:
 905              		.loc 1 469 0
 906 0044 70BD     		pop	{r4, r5, r6, pc}
 907              	.LVL70:
 908              	.L59:
 909              	.LBB31:
 910              		.loc 1 459 0
 911 0046 3346     		mov	r3, r6
 912              	@ 459 "../../os/kernel/src/chevents.c" 1
 913 0048 83F31188 		msr     BASEPRI, r3
 914              	@ 0 "" 2
 915              		.thumb
 916              	.LBE31:
 917              		.loc 1 460 0
 918 004c 3046     		mov	r0, r6
 919 004e 70BD     		pop	{r4, r5, r6, pc}
 920              	.LVL71:
 921              	.L61:
 922              		.align	2
 923              	.L60:
 924 0050 00000000 		.word	rlist
 925              		.cfi_endproc
 926              	.LFE21:
 927              		.size	chEvtWaitOneTimeout, .-chEvtWaitOneTimeout
 928 0054 AFF30080 		.section	.text.chEvtWaitAnyTimeout,"ax",%progbits
 928      AFF30080 
 928      AFF30080 
 929              		.align	2
 930              		.p2align 4,,15
 931              		.global	chEvtWaitAnyTimeout
 932              		.thumb
 933              		.thumb_func
 934              		.type	chEvtWaitAnyTimeout, %function
 935              	chEvtWaitAnyTimeout:
 936              	.LFB22:
 937              		.loc 1 489 0
 938              		.cfi_startproc
 939              		@ args = 0, pretend = 0, frame = 0
 940              		@ frame_needed = 0, uses_anonymous_args = 0
 941              	.LVL72:
 942              		.loc 1 490 0
 943 0000 134B     		ldr	r3, .L68
 944              		.loc 1 489 0
 945 0002 70B5     		push	{r4, r5, r6, lr}
 946              		.cfi_def_cfa_offset 16
 947              		.cfi_offset 4, -16
 948              		.cfi_offset 5, -12
 949              		.cfi_offset 6, -8
 950              		.cfi_offset 14, -4
 951              		.loc 1 489 0
 952 0004 0446     		mov	r4, r0
 953              		.loc 1 490 0
 954 0006 9D69     		ldr	r5, [r3, #24]
 955              	.LVL73:
 956              		.loc 1 489 0
 957 0008 0846     		mov	r0, r1
ARM GAS  /tmp/ccvkeGpn.s 			page 18


 958              	.LVL74:
 959              	.LBB32:
 960              		.loc 1 493 0
 961 000a 2023     		movs	r3, #32
 962              	@ 493 "../../os/kernel/src/chevents.c" 1
 963 000c 83F31188 		msr     BASEPRI, r3
 964              	@ 0 "" 2
 965              		.thumb
 966              	.LBE32:
 967              		.loc 1 495 0
 968 0010 AA6B     		ldr	r2, [r5, #56]
 969              	.LVL75:
 970 0012 14EA0206 		ands	r6, r4, r2
 971              	.LVL76:
 972 0016 0DD1     		bne	.L63
 973              		.loc 1 496 0
 974 0018 19B9     		cbnz	r1, .L64
 975              	.LBB33:
 976              		.loc 1 497 0
 977 001a 0B46     		mov	r3, r1
 978              	@ 497 "../../os/kernel/src/chevents.c" 1
 979 001c 83F31188 		msr     BASEPRI, r3
 980              	@ 0 "" 2
 981              		.thumb
 982              	.LBE33:
 983              		.loc 1 498 0
 984 0020 70BD     		pop	{r4, r5, r6, pc}
 985              	.LVL77:
 986              	.L64:
 987              		.loc 1 500 0
 988 0022 6C62     		str	r4, [r5, #36]
 989              		.loc 1 501 0
 990 0024 0820     		movs	r0, #8
 991              	.LVL78:
 992 0026 FFF7FEFF 		bl	chSchGoSleepTimeoutS
 993              	.LVL79:
 994 002a 0028     		cmp	r0, #0
 995 002c 0ADB     		blt	.L67
 996              		.loc 1 505 0
 997 002e AA6B     		ldr	r2, [r5, #56]
 998 0030 04EA0206 		and	r6, r4, r2
 999              	.LVL80:
 1000              	.L63:
 1001              		.loc 1 507 0
 1002 0034 22EA0602 		bic	r2, r2, r6
 1003 0038 AA63     		str	r2, [r5, #56]
 1004              	.LBB34:
 1005              		.loc 1 509 0
 1006 003a 0023     		movs	r3, #0
 1007              	@ 509 "../../os/kernel/src/chevents.c" 1
 1008 003c 83F31188 		msr     BASEPRI, r3
 1009              	@ 0 "" 2
 1010              		.thumb
 1011              	.LBE34:
 1012              		.loc 1 510 0
 1013 0040 3046     		mov	r0, r6
 1014              		.loc 1 511 0
ARM GAS  /tmp/ccvkeGpn.s 			page 19


 1015 0042 70BD     		pop	{r4, r5, r6, pc}
 1016              	.LVL81:
 1017              	.L67:
 1018              	.LBB35:
 1019              		.loc 1 502 0
 1020 0044 3346     		mov	r3, r6
 1021              	@ 502 "../../os/kernel/src/chevents.c" 1
 1022 0046 83F31188 		msr     BASEPRI, r3
 1023              	@ 0 "" 2
 1024              		.thumb
 1025              	.LBE35:
 1026              		.loc 1 503 0
 1027 004a 3046     		mov	r0, r6
 1028 004c 70BD     		pop	{r4, r5, r6, pc}
 1029              	.LVL82:
 1030              	.L69:
 1031 004e 00BF     		.align	2
 1032              	.L68:
 1033 0050 00000000 		.word	rlist
 1034              		.cfi_endproc
 1035              	.LFE22:
 1036              		.size	chEvtWaitAnyTimeout, .-chEvtWaitAnyTimeout
 1037 0054 AFF30080 		.section	.text.chEvtWaitAllTimeout,"ax",%progbits
 1037      AFF30080 
 1037      AFF30080 
 1038              		.align	2
 1039              		.p2align 4,,15
 1040              		.global	chEvtWaitAllTimeout
 1041              		.thumb
 1042              		.thumb_func
 1043              		.type	chEvtWaitAllTimeout, %function
 1044              	chEvtWaitAllTimeout:
 1045              	.LFB23:
 1046              		.loc 1 530 0
 1047              		.cfi_startproc
 1048              		@ args = 0, pretend = 0, frame = 0
 1049              		@ frame_needed = 0, uses_anonymous_args = 0
 1050              	.LVL83:
 1051 0000 38B5     		push	{r3, r4, r5, lr}
 1052              		.cfi_def_cfa_offset 16
 1053              		.cfi_offset 3, -16
 1054              		.cfi_offset 4, -12
 1055              		.cfi_offset 5, -8
 1056              		.cfi_offset 14, -4
 1057              		.loc 1 531 0
 1058 0002 124B     		ldr	r3, .L75
 1059              		.loc 1 530 0
 1060 0004 0446     		mov	r4, r0
 1061              		.loc 1 531 0
 1062 0006 9D69     		ldr	r5, [r3, #24]
 1063              	.LVL84:
 1064              		.loc 1 530 0
 1065 0008 0846     		mov	r0, r1
 1066              	.LVL85:
 1067              	.LBB36:
 1068              		.loc 1 533 0
 1069 000a 2023     		movs	r3, #32
ARM GAS  /tmp/ccvkeGpn.s 			page 20


 1070              	@ 533 "../../os/kernel/src/chevents.c" 1
 1071 000c 83F31188 		msr     BASEPRI, r3
 1072              	@ 0 "" 2
 1073              		.thumb
 1074              	.LBE36:
 1075              		.loc 1 535 0
 1076 0010 AA6B     		ldr	r2, [r5, #56]
 1077 0012 04EA0203 		and	r3, r4, r2
 1078 0016 A342     		cmp	r3, r4
 1079 0018 0BD0     		beq	.L71
 1080              		.loc 1 536 0
 1081 001a 19B9     		cbnz	r1, .L72
 1082              	.LBB37:
 1083              		.loc 1 537 0
 1084 001c 0B46     		mov	r3, r1
 1085              	@ 537 "../../os/kernel/src/chevents.c" 1
 1086 001e 83F31188 		msr     BASEPRI, r3
 1087              	@ 0 "" 2
 1088              		.thumb
 1089              	.LBE37:
 1090              		.loc 1 538 0
 1091 0022 38BD     		pop	{r3, r4, r5, pc}
 1092              	.LVL86:
 1093              	.L72:
 1094              		.loc 1 540 0
 1095 0024 6C62     		str	r4, [r5, #36]
 1096              		.loc 1 541 0
 1097 0026 0920     		movs	r0, #9
 1098 0028 FFF7FEFF 		bl	chSchGoSleepTimeoutS
 1099              	.LVL87:
 1100 002c 0028     		cmp	r0, #0
 1101 002e 08DB     		blt	.L74
 1102 0030 AA6B     		ldr	r2, [r5, #56]
 1103              	.L71:
 1104              		.loc 1 546 0
 1105 0032 22EA0402 		bic	r2, r2, r4
 1106 0036 AA63     		str	r2, [r5, #56]
 1107              	.LBB38:
 1108              		.loc 1 548 0
 1109 0038 0023     		movs	r3, #0
 1110              	@ 548 "../../os/kernel/src/chevents.c" 1
 1111 003a 83F31188 		msr     BASEPRI, r3
 1112              	@ 0 "" 2
 1113              		.thumb
 1114              	.LBE38:
 1115              		.loc 1 549 0
 1116 003e 2046     		mov	r0, r4
 1117              		.loc 1 550 0
 1118 0040 38BD     		pop	{r3, r4, r5, pc}
 1119              	.LVL88:
 1120              	.L74:
 1121              	.LBB39:
 1122              		.loc 1 542 0
 1123 0042 0023     		movs	r3, #0
 1124              	@ 542 "../../os/kernel/src/chevents.c" 1
 1125 0044 83F31188 		msr     BASEPRI, r3
 1126              	@ 0 "" 2
ARM GAS  /tmp/ccvkeGpn.s 			page 21


 1127              		.thumb
 1128              	.LBE39:
 1129              		.loc 1 543 0
 1130 0048 1846     		mov	r0, r3
 1131 004a 38BD     		pop	{r3, r4, r5, pc}
 1132              	.LVL89:
 1133              	.L76:
 1134              		.align	2
 1135              	.L75:
 1136 004c 00000000 		.word	rlist
 1137              		.cfi_endproc
 1138              	.LFE23:
 1139              		.size	chEvtWaitAllTimeout, .-chEvtWaitAllTimeout
 1140              		.text
 1141              	.Letext0:
 1142              		.file 2 "/opt/ARM/arm-none-eabi/include/machine/_default_types.h"
 1143              		.file 3 "/opt/ARM/arm-none-eabi/include/stdint.h"
 1144              		.file 4 "../../os/ports/GCC/ARMCMx/chtypes.h"
 1145              		.file 5 "../../os/kernel/include/chlists.h"
 1146              		.file 6 "../../os/kernel/include/chthreads.h"
 1147              		.file 7 "../../os/ports/GCC/ARMCMx/chcore_v7m.h"
 1148              		.file 8 "../../os/kernel/include/chschd.h"
 1149              		.file 9 "../../os/kernel/include/chmtx.h"
 1150              		.file 10 "../../os/kernel/include/chevents.h"