ARM GAS  /tmp/ccyFCOrK.s 			page 1


   1              		.syntax unified
   2              		.cpu cortex-m4
   3              		.fpu softvfp
   4              		.eabi_attribute 20, 1
   5              		.eabi_attribute 21, 1
   6              		.eabi_attribute 23, 3
   7              		.eabi_attribute 24, 1
   8              		.eabi_attribute 25, 1
   9              		.eabi_attribute 26, 1
  10              		.eabi_attribute 30, 2
  11              		.eabi_attribute 34, 1
  12              		.eabi_attribute 18, 4
  13              		.thumb
  14              		.file	"chibios.c"
  15              		.text
  16              	.Ltext0:
  17              		.cfi_sections	.debug_frame
  18              		.section	.text._gosInit,"ax",%progbits
  19              		.align	2
  20              		.p2align 4,,15
  21              		.global	_gosInit
  22              		.thumb
  23              		.thumb_func
  24              		.type	_gosInit, %function
  25              	_gosInit:
  26              	.LFB118:
  27              		.file 1 "/home/makkmarci/devel/ugfx/src/gos/chibios.c"
  28              		.loc 1 35 0
  29              		.cfi_startproc
  30              		@ args = 0, pretend = 0, frame = 0
  31              		@ frame_needed = 0, uses_anonymous_args = 0
  32 0000 08B5     		push	{r3, lr}
  33              		.cfi_def_cfa_offset 8
  34              		.cfi_offset 3, -8
  35              		.cfi_offset 14, -4
  36              		.loc 1 39 0
  37 0002 054B     		ldr	r3, .L5
  38 0004 9B69     		ldr	r3, [r3, #24]
  39 0006 03B1     		cbz	r3, .L4
  40 0008 08BD     		pop	{r3, pc}
  41              	.L4:
  42              		.loc 1 40 0
  43 000a FFF7FEFF 		bl	halInit
  44              	.LVL0:
  45              		.loc 1 49 0
  46 000e BDE80840 		pop	{r3, lr}
  47              		.loc 1 41 0
  48 0012 FFF7FEBF 		b	chSysInit
  49              	.LVL1:
  50              	.L6:
  51 0016 00BF     		.align	2
  52              	.L5:
  53 0018 00000000 		.word	rlist
  54              		.cfi_endproc
  55              	.LFE118:
  56              		.size	_gosInit, .-_gosInit
  57 001c AFF30080 		.section	.text._gosDeinit,"ax",%progbits
ARM GAS  /tmp/ccyFCOrK.s 			page 2


  58              		.align	2
  59              		.p2align 4,,15
  60              		.global	_gosDeinit
  61              		.thumb
  62              		.thumb_func
  63              		.type	_gosDeinit, %function
  64              	_gosDeinit:
  65              	.LFB119:
  66              		.loc 1 52 0
  67              		.cfi_startproc
  68              		@ args = 0, pretend = 0, frame = 0
  69              		@ frame_needed = 0, uses_anonymous_args = 0
  70              		@ link register save eliminated.
  71 0000 7047     		bx	lr
  72              		.cfi_endproc
  73              	.LFE119:
  74              		.size	_gosDeinit, .-_gosDeinit
  75 0002 00BFAFF3 		.section	.text.gfxRealloc,"ax",%progbits
  75      0080AFF3 
  75      0080AFF3 
  75      0080
  76              		.align	2
  77              		.p2align 4,,15
  78              		.global	gfxRealloc
  79              		.thumb
  80              		.thumb_func
  81              		.type	gfxRealloc, %function
  82              	gfxRealloc:
  83              	.LFB120:
  84              		.loc 1 57 0
  85              		.cfi_startproc
  86              		@ args = 0, pretend = 0, frame = 0
  87              		@ frame_needed = 0, uses_anonymous_args = 0
  88              	.LVL2:
  89              		.loc 1 60 0
  90 0000 8A42     		cmp	r2, r1
  91              		.loc 1 57 0
  92 0002 70B5     		push	{r4, r5, r6, lr}
  93              		.cfi_def_cfa_offset 16
  94              		.cfi_offset 4, -16
  95              		.cfi_offset 5, -12
  96              		.cfi_offset 6, -8
  97              		.cfi_offset 14, -4
  98              		.loc 1 57 0
  99 0004 0C46     		mov	r4, r1
 100 0006 0546     		mov	r5, r0
 101              		.loc 1 60 0
 102 0008 00D8     		bhi	.L13
 103 000a 70BD     		pop	{r4, r5, r6, pc}
 104              	.L13:
 105              		.loc 1 63 0
 106 000c 1146     		mov	r1, r2
 107              	.LVL3:
 108 000e 0020     		movs	r0, #0
 109              	.LVL4:
 110 0010 FFF7FEFF 		bl	chHeapAlloc
 111              	.LVL5:
ARM GAS  /tmp/ccyFCOrK.s 			page 3


 112              		.loc 1 64 0
 113 0014 0646     		mov	r6, r0
 114 0016 00B1     		cbz	r0, .L12
 115              		.loc 1 67 0
 116 0018 0CB9     		cbnz	r4, .L14
 117              	.L12:
 118 001a 3046     		mov	r0, r6
 119              	.LVL6:
 120              		.loc 1 71 0
 121 001c 70BD     		pop	{r4, r5, r6, pc}
 122              	.LVL7:
 123              	.L14:
 124              		.loc 1 68 0
 125 001e 2946     		mov	r1, r5
 126 0020 2246     		mov	r2, r4
 127 0022 FFF7FEFF 		bl	memcpy
 128              	.LVL8:
 129 0026 3046     		mov	r0, r6
 130 0028 70BD     		pop	{r4, r5, r6, pc}
 131              		.cfi_endproc
 132              	.LFE120:
 133              		.size	gfxRealloc, .-gfxRealloc
 134 002a 00BFAFF3 		.section	.text.gfxSleepMilliseconds,"ax",%progbits
 134      0080
 135              		.align	2
 136              		.p2align 4,,15
 137              		.global	gfxSleepMilliseconds
 138              		.thumb
 139              		.thumb_func
 140              		.type	gfxSleepMilliseconds, %function
 141              	gfxSleepMilliseconds:
 142              	.LFB121:
 143              		.loc 1 74 0
 144              		.cfi_startproc
 145              		@ args = 0, pretend = 0, frame = 0
 146              		@ frame_needed = 0, uses_anonymous_args = 0
 147              		@ link register save eliminated.
 148              	.LVL9:
 149              		.loc 1 75 0
 150 0000 0346     		mov	r3, r0
 151 0002 78B1     		cbz	r0, .L17
 152 0004 421C     		adds	r2, r0, #1
 153 0006 01D1     		bne	.L21
 154              		.loc 1 78 0
 155 0008 FFF7FEBF 		b	chThdSleep
 156              	.LVL10:
 157              	.L21:
 158 000c 4FF47A70 		mov	r0, #1000
 159              	.LVL11:
 160 0010 00FB03F0 		mul	r0, r0, r3
 161 0014 044A     		ldr	r2, .L22
 162 0016 0138     		subs	r0, r0, #1
 163 0018 A2FB0030 		umull	r3, r0, r2, r0
 164              	.LVL12:
 165 001c 8009     		lsrs	r0, r0, #6
 166 001e 0130     		adds	r0, r0, #1
 167 0020 FFF7FEBF 		b	chThdSleep
ARM GAS  /tmp/ccyFCOrK.s 			page 4


 168              	.LVL13:
 169              	.L17:
 170              		.loc 1 76 0
 171 0024 FFF7FEBF 		b	chThdYield
 172              	.LVL14:
 173              	.L23:
 174              		.align	2
 175              	.L22:
 176 0028 D34D6210 		.word	274877907
 177              		.cfi_endproc
 178              	.LFE121:
 179              		.size	gfxSleepMilliseconds, .-gfxSleepMilliseconds
 180 002c AFF30080 		.section	.text.gfxSleepMicroseconds,"ax",%progbits
 181              		.align	2
 182              		.p2align 4,,15
 183              		.global	gfxSleepMicroseconds
 184              		.thumb
 185              		.thumb_func
 186              		.type	gfxSleepMicroseconds, %function
 187              	gfxSleepMicroseconds:
 188              	.LFB122:
 189              		.loc 1 83 0
 190              		.cfi_startproc
 191              		@ args = 0, pretend = 0, frame = 0
 192              		@ frame_needed = 0, uses_anonymous_args = 0
 193              		@ link register save eliminated.
 194              	.LVL15:
 195              		.loc 1 84 0
 196 0000 0346     		mov	r3, r0
 197 0002 78B1     		cbz	r0, .L24
 198 0004 421C     		adds	r2, r0, #1
 199 0006 01D1     		bne	.L28
 200              		.loc 1 87 0
 201 0008 FFF7FEBF 		b	chThdSleep
 202              	.LVL16:
 203              	.L28:
 204 000c 4FF47A70 		mov	r0, #1000
 205              	.LVL17:
 206 0010 00FB03F0 		mul	r0, r0, r3
 207 0014 044A     		ldr	r2, .L30
 208 0016 0138     		subs	r0, r0, #1
 209 0018 A2FB0030 		umull	r3, r0, r2, r0
 210              	.LVL18:
 211 001c 800C     		lsrs	r0, r0, #18
 212 001e 0130     		adds	r0, r0, #1
 213 0020 FFF7FEBF 		b	chThdSleep
 214              	.LVL19:
 215              	.L24:
 216 0024 7047     		bx	lr
 217              	.L31:
 218 0026 00BF     		.align	2
 219              	.L30:
 220 0028 83DE1B43 		.word	1125899907
 221              		.cfi_endproc
 222              	.LFE122:
 223              		.size	gfxSleepMicroseconds, .-gfxSleepMicroseconds
 224 002c AFF30080 		.section	.text.gfxSemInit,"ax",%progbits
ARM GAS  /tmp/ccyFCOrK.s 			page 5


 225              		.align	2
 226              		.p2align 4,,15
 227              		.global	gfxSemInit
 228              		.thumb
 229              		.thumb_func
 230              		.type	gfxSemInit, %function
 231              	gfxSemInit:
 232              	.LFB123:
 233              		.loc 1 92 0
 234              		.cfi_startproc
 235              		@ args = 0, pretend = 0, frame = 0
 236              		@ frame_needed = 0, uses_anonymous_args = 0
 237              		@ link register save eliminated.
 238              	.LVL20:
 239              		.loc 1 96 0
 240 0000 C260     		str	r2, [r0, #12]
 241              		.loc 1 99 0
 242 0002 9142     		cmp	r1, r2
 243 0004 A8BF     		it	ge
 244 0006 1146     		movge	r1, r2
 245              	.LVL21:
 246 0008 FFF7FEBF 		b	chSemInit
 247              	.LVL22:
 248              		.cfi_endproc
 249              	.LFE123:
 250              		.size	gfxSemInit, .-gfxSemInit
 251 000c AFF30080 		.section	.text.gfxSemDestroy,"ax",%progbits
 252              		.align	2
 253              		.p2align 4,,15
 254              		.global	gfxSemDestroy
 255              		.thumb
 256              		.thumb_func
 257              		.type	gfxSemDestroy, %function
 258              	gfxSemDestroy:
 259              	.LFB124:
 260              		.loc 1 106 0
 261              		.cfi_startproc
 262              		@ args = 0, pretend = 0, frame = 0
 263              		@ frame_needed = 0, uses_anonymous_args = 0
 264              		@ link register save eliminated.
 265              	.LVL23:
 266              		.loc 1 107 0
 267 0000 0121     		movs	r1, #1
 268 0002 FFF7FEBF 		b	chSemReset
 269              	.LVL24:
 270              		.cfi_endproc
 271              	.LFE124:
 272              		.size	gfxSemDestroy, .-gfxSemDestroy
 273 0006 00BFAFF3 		.section	.text.gfxSemWait,"ax",%progbits
 273      0080AFF3 
 273      0080
 274              		.align	2
 275              		.p2align 4,,15
 276              		.global	gfxSemWait
 277              		.thumb
 278              		.thumb_func
 279              		.type	gfxSemWait, %function
ARM GAS  /tmp/ccyFCOrK.s 			page 6


 280              	gfxSemWait:
 281              	.LFB125:
 282              		.loc 1 111 0
 283              		.cfi_startproc
 284              		@ args = 0, pretend = 0, frame = 0
 285              		@ frame_needed = 0, uses_anonymous_args = 0
 286              	.LVL25:
 287 0000 08B5     		push	{r3, lr}
 288              		.cfi_def_cfa_offset 8
 289              		.cfi_offset 3, -8
 290              		.cfi_offset 14, -4
 291              		.loc 1 113 0
 292 0002 0B46     		mov	r3, r1
 293 0004 79B1     		cbz	r1, .L40
 294 0006 4A1C     		adds	r2, r1, #1
 295 0008 03D1     		bne	.L41
 296              		.loc 1 115 0
 297 000a FFF7FEFF 		bl	chSemWait
 298              	.LVL26:
 299 000e 0120     		movs	r0, #1
 300 0010 08BD     		pop	{r3, pc}
 301              	.LVL27:
 302              	.L41:
 303              		.loc 1 116 0
 304 0012 4FF47A71 		mov	r1, #1000
 305              	.LVL28:
 306 0016 01FB03F1 		mul	r1, r1, r3
 307 001a 064A     		ldr	r2, .L42
 308 001c 0139     		subs	r1, r1, #1
 309 001e A2FB0131 		umull	r3, r1, r2, r1
 310              	.LVL29:
 311 0022 8909     		lsrs	r1, r1, #6
 312 0024 0131     		adds	r1, r1, #1
 313              	.L40:
 314 0026 FFF7FEFF 		bl	chSemWaitTimeout
 315              	.LVL30:
 316 002a 0130     		adds	r0, r0, #1
 317 002c 18BF     		it	ne
 318 002e 0120     		movne	r0, #1
 319              		.loc 1 125 0
 320 0030 08BD     		pop	{r3, pc}
 321              	.L43:
 322 0032 00BF     		.align	2
 323              	.L42:
 324 0034 D34D6210 		.word	274877907
 325              		.cfi_endproc
 326              	.LFE125:
 327              		.size	gfxSemWait, .-gfxSemWait
 328 0038 AFF30080 		.section	.text.gfxSemWaitI,"ax",%progbits
 328      AFF30080 
 329              		.align	2
 330              		.p2align 4,,15
 331              		.global	gfxSemWaitI
 332              		.thumb
 333              		.thumb_func
 334              		.type	gfxSemWaitI, %function
 335              	gfxSemWaitI:
ARM GAS  /tmp/ccyFCOrK.s 			page 7


 336              	.LFB126:
 337              		.loc 1 128 0
 338              		.cfi_startproc
 339              		@ args = 0, pretend = 0, frame = 0
 340              		@ frame_needed = 0, uses_anonymous_args = 0
 341              		@ link register save eliminated.
 342              	.LVL31:
 343              		.loc 1 129 0
 344 0000 8368     		ldr	r3, [r0, #8]
 345 0002 002B     		cmp	r3, #0
 346              		.loc 1 131 0
 347 0004 C3BF     		ittte	gt
 348 0006 03F1FF33 		addgt	r3, r3, #-1
 349 000a 8360     		strgt	r3, [r0, #8]
 350              		.loc 1 132 0
 351 000c 0120     		movgt	r0, #1
 352              	.LVL32:
 353              		.loc 1 130 0
 354 000e 0020     		movle	r0, #0
 355              		.loc 1 133 0
 356 0010 7047     		bx	lr
 357              		.cfi_endproc
 358              	.LFE126:
 359              		.size	gfxSemWaitI, .-gfxSemWaitI
 360 0012 00BFAFF3 		.section	.text.gfxSemSignal,"ax",%progbits
 360      0080AFF3 
 360      0080AFF3 
 360      0080
 361              		.align	2
 362              		.p2align 4,,15
 363              		.global	gfxSemSignal
 364              		.thumb
 365              		.thumb_func
 366              		.type	gfxSemSignal, %function
 367              	gfxSemSignal:
 368              	.LFB127:
 369              		.loc 1 136 0
 370              		.cfi_startproc
 371              		@ args = 0, pretend = 0, frame = 0
 372              		@ frame_needed = 0, uses_anonymous_args = 0
 373              	.LVL33:
 374 0000 08B5     		push	{r3, lr}
 375              		.cfi_def_cfa_offset 8
 376              		.cfi_offset 3, -8
 377              		.cfi_offset 14, -4
 378              	.LBB2:
 379              		.loc 1 137 0
 380 0002 2023     		movs	r3, #32
 381              	@ 137 "/home/makkmarci/devel/ugfx/src/gos/chibios.c" 1
 382 0004 83F31188 		msr     BASEPRI, r3
 383              	@ 0 "" 2
 384              		.thumb
 385              	.LBE2:
 386              		.loc 1 139 0
 387 0008 8168     		ldr	r1, [r0, #8]
 388 000a C368     		ldr	r3, [r0, #12]
 389 000c 9942     		cmp	r1, r3
ARM GAS  /tmp/ccyFCOrK.s 			page 8


 390 000e 01DA     		bge	.L48
 391              		.loc 1 140 0
 392 0010 FFF7FEFF 		bl	chSemSignalI
 393              	.LVL34:
 394              	.L48:
 395              		.loc 1 142 0
 396 0014 FFF7FEFF 		bl	chSchRescheduleS
 397              	.LVL35:
 398              	.LBB3:
 399              		.loc 1 143 0
 400 0018 0023     		movs	r3, #0
 401              	@ 143 "/home/makkmarci/devel/ugfx/src/gos/chibios.c" 1
 402 001a 83F31188 		msr     BASEPRI, r3
 403              	@ 0 "" 2
 404              		.thumb
 405 001e 08BD     		pop	{r3, pc}
 406              	.LBE3:
 407              		.cfi_endproc
 408              	.LFE127:
 409              		.size	gfxSemSignal, .-gfxSemSignal
 410              		.section	.text.gfxSemSignalI,"ax",%progbits
 411              		.align	2
 412              		.p2align 4,,15
 413              		.global	gfxSemSignalI
 414              		.thumb
 415              		.thumb_func
 416              		.type	gfxSemSignalI, %function
 417              	gfxSemSignalI:
 418              	.LFB128:
 419              		.loc 1 147 0
 420              		.cfi_startproc
 421              		@ args = 0, pretend = 0, frame = 0
 422              		@ frame_needed = 0, uses_anonymous_args = 0
 423              		@ link register save eliminated.
 424              	.LVL36:
 425              		.loc 1 148 0
 426 0000 8268     		ldr	r2, [r0, #8]
 427 0002 C368     		ldr	r3, [r0, #12]
 428 0004 9A42     		cmp	r2, r3
 429 0006 00DB     		blt	.L51
 430 0008 7047     		bx	lr
 431              	.L51:
 432              		.loc 1 149 0
 433 000a FFF7FEBF 		b	chSemSignalI
 434              	.LVL37:
 435              		.cfi_endproc
 436              	.LFE128:
 437              		.size	gfxSemSignalI, .-gfxSemSignalI
 438 000e 00BF     		.section	.text.gfxThreadCreate,"ax",%progbits
 439              		.align	2
 440              		.p2align 4,,15
 441              		.global	gfxThreadCreate
 442              		.thumb
 443              		.thumb_func
 444              		.type	gfxThreadCreate, %function
 445              	gfxThreadCreate:
 446              	.LFB129:
ARM GAS  /tmp/ccyFCOrK.s 			page 9


 447              		.loc 1 153 0
 448              		.cfi_startproc
 449              		@ args = 4, pretend = 0, frame = 0
 450              		@ frame_needed = 0, uses_anonymous_args = 0
 451              		@ link register save eliminated.
 452              	.LVL38:
 453 0000 30B4     		push	{r4, r5}
 454              		.cfi_def_cfa_offset 8
 455              		.cfi_offset 4, -8
 456              		.cfi_offset 5, -4
 457              		.loc 1 153 0
 458 0002 029D     		ldr	r5, [sp, #8]
 459              		.loc 1 154 0
 460 0004 38B1     		cbz	r0, .L57
 461              		.loc 1 159 0
 462 0006 19B1     		cbz	r1, .L55
 463              		.loc 1 162 0
 464 0008 0295     		str	r5, [sp, #8]
 465              	.LVL39:
 466              		.loc 1 163 0
 467 000a 30BC     		pop	{r4, r5}
 468              		.loc 1 162 0
 469 000c FFF7FEBF 		b	chThdCreateStatic
 470              	.LVL40:
 471              	.L55:
 472              		.loc 1 163 0
 473 0010 0846     		mov	r0, r1
 474              	.LVL41:
 475 0012 30BC     		pop	{r4, r5}
 476              	.LVL42:
 477 0014 7047     		bx	lr
 478              	.LVL43:
 479              	.L57:
 480              		.loc 1 155 0
 481 0016 0029     		cmp	r1, #0
 482              	.LVL44:
 483              		.loc 1 156 0
 484 0018 08BF     		it	eq
 485 001a 4FF48071 		moveq	r1, #256
 486              	.LVL45:
 487              		.loc 1 163 0
 488 001e 30BC     		pop	{r4, r5}
 489              	.LVL46:
 490              		.loc 1 156 0
 491 0020 FFF7FEBF 		b	chThdCreateFromHeap
 492              	.LVL47:
 493              		.cfi_endproc
 494              	.LFE129:
 495              		.size	gfxThreadCreate, .-gfxThreadCreate
 496 0024 AFF30080 		.text
 496      AFF30080 
 496      AFF30080 
 497              	.Letext0:
 498              		.file 2 "/opt/ARM/lib/gcc/arm-none-eabi/4.8.4/include/stddef.h"
 499              		.file 3 "/opt/ARM/arm-none-eabi/include/machine/_default_types.h"
 500              		.file 4 "/opt/ARM/arm-none-eabi/include/stdint.h"
 501              		.file 5 "../../os/ports/GCC/ARMCMx/chtypes.h"
ARM GAS  /tmp/ccyFCOrK.s 			page 10


 502              		.file 6 "../../os/kernel/include/chlists.h"
 503              		.file 7 "../../os/kernel/include/chthreads.h"
 504              		.file 8 "../../os/ports/GCC/ARMCMx/chcore_v7m.h"
 505              		.file 9 "../../os/kernel/include/chschd.h"
 506              		.file 10 "../../os/kernel/include/chsem.h"
 507              		.file 11 "../../os/kernel/include/chmtx.h"
 508              		.file 12 "../../os/kernel/include/chmemcore.h"
 509              		.file 13 "../../os/kernel/include/chheap.h"
 510              		.file 14 "/home/makkmarci/devel/ugfx/src/gos/chibios.h"
 511              		.file 15 "../../os/ports/common/ARMCMx/CMSIS/include/core_cm4.h"
 512              		.file 16 "../../os/hal/include/hal.h"
 513              		.file 17 "../../os/kernel/include/chsys.h"
 514              		.file 18 "../../os/kernel/include/chdynamic.h"