ARM GAS  /tmp/ccgCet8F.s 			page 1


   1              		.syntax unified
   2              		.cpu cortex-m4
   3              		.fpu softvfp
   4              		.eabi_attribute 20, 1
   5              		.eabi_attribute 21, 1
   6              		.eabi_attribute 23, 3
   7              		.eabi_attribute 24, 1
   8              		.eabi_attribute 25, 1
   9              		.eabi_attribute 26, 1
  10              		.eabi_attribute 30, 2
  11              		.eabi_attribute 34, 1
  12              		.eabi_attribute 18, 4
  13              		.thumb
  14              		.file	"gfx.c"
  15              		.text
  16              	.Ltext0:
  17              		.cfi_sections	.debug_frame
  18              		.section	.text.gfxInit,"ax",%progbits
  19              		.align	2
  20              		.p2align 4,,15
  21              		.global	gfxInit
  22              		.thumb
  23              		.thumb_func
  24              		.type	gfxInit, %function
  25              	gfxInit:
  26              	.LFB118:
  27              		.file 1 "/home/makkmarci/devel/ugfx/src/gfx.c"
  28              		.loc 1 61 0
  29              		.cfi_startproc
  30              		@ args = 0, pretend = 0, frame = 0
  31              		@ frame_needed = 0, uses_anonymous_args = 0
  32 0000 08B5     		push	{r3, lr}
  33              		.cfi_def_cfa_offset 8
  34              		.cfi_offset 3, -8
  35              		.cfi_offset 14, -4
  36              		.loc 1 63 0
  37 0002 064B     		ldr	r3, .L5
  38 0004 1A78     		ldrb	r2, [r3]	@ zero_extendqisi2
  39 0006 02B1     		cbz	r2, .L4
  40 0008 08BD     		pop	{r3, pc}
  41              	.L4:
  42              		.loc 1 65 0
  43 000a 0122     		movs	r2, #1
  44 000c 1A70     		strb	r2, [r3]
  45              		.loc 1 69 0
  46 000e FFF7FEFF 		bl	_gosInit
  47              	.LVL0:
  48              		.loc 1 97 0
  49 0012 BDE80840 		pop	{r3, lr}
  50              		.loc 1 83 0
  51 0016 FFF7FEBF 		b	_gdispInit
  52              	.LVL1:
  53              	.L6:
  54 001a 00BF     		.align	2
  55              	.L5:
  56 001c 00000000 		.word	.LANCHOR0
  57              		.cfi_endproc
ARM GAS  /tmp/ccgCet8F.s 			page 2


  58              	.LFE118:
  59              		.size	gfxInit, .-gfxInit
  60              		.section	.text.gfxDeinit,"ax",%progbits
  61              		.align	2
  62              		.p2align 4,,15
  63              		.global	gfxDeinit
  64              		.thumb
  65              		.thumb_func
  66              		.type	gfxDeinit, %function
  67              	gfxDeinit:
  68              	.LFB119:
  69              		.loc 1 100 0
  70              		.cfi_startproc
  71              		@ args = 0, pretend = 0, frame = 0
  72              		@ frame_needed = 0, uses_anonymous_args = 0
  73 0000 08B5     		push	{r3, lr}
  74              		.cfi_def_cfa_offset 8
  75              		.cfi_offset 3, -8
  76              		.cfi_offset 14, -4
  77              		.loc 1 101 0
  78 0002 064B     		ldr	r3, .L10
  79 0004 1A78     		ldrb	r2, [r3]	@ zero_extendqisi2
  80 0006 02B9     		cbnz	r2, .L9
  81 0008 08BD     		pop	{r3, pc}
  82              	.L9:
  83              		.loc 1 103 0
  84 000a 0022     		movs	r2, #0
  85 000c 1A70     		strb	r2, [r3]
  86              		.loc 1 119 0
  87 000e FFF7FEFF 		bl	_gdispDeinit
  88              	.LVL2:
  89              		.loc 1 134 0
  90 0012 BDE80840 		pop	{r3, lr}
  91              		.loc 1 133 0
  92 0016 FFF7FEBF 		b	_gosDeinit
  93              	.LVL3:
  94              	.L11:
  95 001a 00BF     		.align	2
  96              	.L10:
  97 001c 00000000 		.word	.LANCHOR0
  98              		.cfi_endproc
  99              	.LFE119:
 100              		.size	gfxDeinit, .-gfxDeinit
 101              		.section	.bss.initDone,"aw",%nobits
 102              		.set	.LANCHOR0,. + 0
 103              		.type	initDone, %object
 104              		.size	initDone, 1
 105              	initDone:
 106 0000 00       		.space	1
 107              		.text
 108              	.Letext0:
 109              		.file 2 "/opt/ARM/arm-none-eabi/include/machine/_default_types.h"
 110              		.file 3 "/opt/ARM/arm-none-eabi/include/stdint.h"
 111              		.file 4 "../../os/ports/GCC/ARMCMx/chtypes.h"
 112              		.file 5 "../../os/ports/common/ARMCMx/CMSIS/include/core_cm4.h"