ARM GAS  /tmp/cc3vYl9E.s 			page 1


   1              		.syntax unified
   2              		.cpu cortex-m4
   3              		.fpu softvfp
   4              		.eabi_attribute 20, 1
   5              		.eabi_attribute 21, 1
   6              		.eabi_attribute 23, 3
   7              		.eabi_attribute 24, 1
   8              		.eabi_attribute 25, 1
   9              		.eabi_attribute 26, 1
  10              		.eabi_attribute 30, 2
  11              		.eabi_attribute 34, 1
  12              		.eabi_attribute 18, 4
  13              		.thumb
  14              		.file	"lis302dl.c"
  15              		.text
  16              	.Ltext0:
  17              		.cfi_sections	.debug_frame
  18              		.section	.text.lis302dlReadRegister,"ax",%progbits
  19              		.align	2
  20              		.p2align 4,,15
  21              		.global	lis302dlReadRegister
  22              		.thumb
  23              		.thumb_func
  24              		.type	lis302dlReadRegister, %function
  25              	lis302dlReadRegister:
  26              	.LFB118:
  27              		.file 1 "../../os/various/devices_lib/accel/lis302dl.c"
  28              		.loc 1 60 0
  29              		.cfi_startproc
  30              		@ args = 0, pretend = 0, frame = 0
  31              		@ frame_needed = 0, uses_anonymous_args = 0
  32              	.LVL0:
  33 0000 F8B5     		push	{r3, r4, r5, r6, r7, lr}
  34              		.cfi_def_cfa_offset 24
  35              		.cfi_offset 3, -24
  36              		.cfi_offset 4, -20
  37              		.cfi_offset 5, -16
  38              		.cfi_offset 6, -12
  39              		.cfi_offset 7, -8
  40              		.cfi_offset 14, -4
  41              		.loc 1 63 0
  42 0002 0B4C     		ldr	r4, .L2
  43              		.loc 1 65 0
  44 0004 0B4D     		ldr	r5, .L2+4
  45              		.loc 1 60 0
  46 0006 0F46     		mov	r7, r1
  47 0008 0646     		mov	r6, r0
  48              		.loc 1 62 0
  49 000a FFF7FEFF 		bl	spiSelect
  50              	.LVL1:
  51              		.loc 1 63 0
  52 000e 67F07F0E 		orn	lr, r7, #127
  53              		.loc 1 65 0
  54 0012 2246     		mov	r2, r4
  55 0014 3046     		mov	r0, r6
  56 0016 2B46     		mov	r3, r5
  57 0018 0221     		movs	r1, #2
ARM GAS  /tmp/cc3vYl9E.s 			page 2


  58              		.loc 1 64 0
  59 001a FF27     		movs	r7, #255
  60              		.loc 1 63 0
  61 001c 84F800E0 		strb	lr, [r4]
  62              		.loc 1 64 0
  63 0020 6770     		strb	r7, [r4, #1]
  64              		.loc 1 65 0
  65 0022 FFF7FEFF 		bl	spiExchange
  66              	.LVL2:
  67              		.loc 1 66 0
  68 0026 3046     		mov	r0, r6
  69 0028 FFF7FEFF 		bl	spiUnselect
  70              	.LVL3:
  71              		.loc 1 68 0
  72 002c 6878     		ldrb	r0, [r5, #1]	@ zero_extendqisi2
  73 002e F8BD     		pop	{r3, r4, r5, r6, r7, pc}
  74              	.LVL4:
  75              	.L3:
  76              		.align	2
  77              	.L2:
  78 0030 00000000 		.word	.LANCHOR0
  79 0034 00000000 		.word	.LANCHOR1
  80              		.cfi_endproc
  81              	.LFE118:
  82              		.size	lis302dlReadRegister, .-lis302dlReadRegister
  83 0038 AFF30080 		.section	.text.lis302dlWriteRegister,"ax",%progbits
  83      AFF30080 
  84              		.align	2
  85              		.p2align 4,,15
  86              		.global	lis302dlWriteRegister
  87              		.thumb
  88              		.thumb_func
  89              		.type	lis302dlWriteRegister, %function
  90              	lis302dlWriteRegister:
  91              	.LFB119:
  92              		.loc 1 78 0
  93              		.cfi_startproc
  94              		@ args = 0, pretend = 0, frame = 0
  95              		@ frame_needed = 0, uses_anonymous_args = 0
  96              	.LVL5:
  97 0000 F8B5     		push	{r3, r4, r5, r6, r7, lr}
  98              		.cfi_def_cfa_offset 24
  99              		.cfi_offset 3, -24
 100              		.cfi_offset 4, -20
 101              		.cfi_offset 5, -16
 102              		.cfi_offset 6, -12
 103              		.cfi_offset 7, -8
 104              		.cfi_offset 14, -4
 105 0002 A1F12003 		sub	r3, r1, #32
 106 0006 DBB2     		uxtb	r3, r3
 107 0008 1F2B     		cmp	r3, #31
 108              		.loc 1 78 0
 109 000a 0D46     		mov	r5, r1
 110 000c 1746     		mov	r7, r2
 111 000e 0646     		mov	r6, r0
 112 0010 05D8     		bhi	.L4
 113 0012 0121     		movs	r1, #1
ARM GAS  /tmp/cc3vYl9E.s 			page 3


 114              	.LVL6:
 115 0014 0A4C     		ldr	r4, .L11
 116 0016 01FA03F3 		lsl	r3, r1, r3
 117 001a 1C40     		ands	r4, r4, r3
 118 001c 04B9     		cbnz	r4, .L10
 119              	.L4:
 120 001e F8BD     		pop	{r3, r4, r5, r6, r7, pc}
 121              	.L10:
 122              		.loc 1 111 0
 123 0020 FFF7FEFF 		bl	spiSelect
 124              	.LVL7:
 125              		.loc 1 112 0
 126 0024 074B     		ldr	r3, .L11+4
 127              		.loc 1 114 0
 128 0026 3046     		mov	r0, r6
 129 0028 1A46     		mov	r2, r3
 130 002a 0221     		movs	r1, #2
 131              		.loc 1 112 0
 132 002c 1D70     		strb	r5, [r3]
 133              		.loc 1 113 0
 134 002e 5F70     		strb	r7, [r3, #1]
 135              		.loc 1 114 0
 136 0030 FFF7FEFF 		bl	spiSend
 137              	.LVL8:
 138              		.loc 1 115 0
 139 0034 3046     		mov	r0, r6
 140              		.loc 1 117 0
 141 0036 BDE8F840 		pop	{r3, r4, r5, r6, r7, lr}
 142              	.LVL9:
 143              		.loc 1 115 0
 144 003a FFF7FEBF 		b	spiUnselect
 145              	.LVL10:
 146              	.L12:
 147 003e 00BF     		.align	2
 148              	.L11:
 149 0040 0700DDF9 		.word	-102957049
 150 0044 00000000 		.word	.LANCHOR0
 151              		.cfi_endproc
 152              	.LFE119:
 153              		.size	lis302dlWriteRegister, .-lis302dlWriteRegister
 154 0048 AFF30080 		.section	.bss.rxbuf,"aw",%nobits
 154      AFF30080 
 155              		.align	2
 156              		.set	.LANCHOR1,. + 0
 157              		.type	rxbuf, %object
 158              		.size	rxbuf, 2
 159              	rxbuf:
 160 0000 0000     		.space	2
 161 0002 0000     		.section	.bss.txbuf,"aw",%nobits
 162              		.align	2
 163              		.set	.LANCHOR0,. + 0
 164              		.type	txbuf, %object
 165              		.size	txbuf, 2
 166              	txbuf:
 167 0000 0000     		.space	2
 168 0002 0000     		.text
 169              	.Letext0:
ARM GAS  /tmp/cc3vYl9E.s 			page 4


 170              		.file 2 "/opt/ARM/lib/gcc/arm-none-eabi/4.8.4/include/stddef.h"
 171              		.file 3 "/opt/ARM/arm-none-eabi/include/machine/_default_types.h"
 172              		.file 4 "/opt/ARM/arm-none-eabi/include/stdint.h"
 173              		.file 5 "../../os/ports/GCC/ARMCMx/chtypes.h"
 174              		.file 6 "../../os/kernel/include/chlists.h"
 175              		.file 7 "../../os/kernel/include/chthreads.h"
 176              		.file 8 "../../os/ports/GCC/ARMCMx/chcore_v7m.h"
 177              		.file 9 "../../os/kernel/include/chmtx.h"
 178              		.file 10 "../../os/hal/platforms/STM32F4xx/stm32f4xx.h"
 179              		.file 11 "../../os/hal/platforms/STM32F4xx/stm32_dma.h"
 180              		.file 12 "../../os/hal/platforms/STM32/GPIOv2/pal_lld.h"
 181              		.file 13 "../../os/hal/include/spi.h"
 182              		.file 14 "../../os/hal/platforms/STM32/SPIv1/spi_lld.h"
 183              		.file 15 "../../os/ports/common/ARMCMx/CMSIS/include/core_cm4.h"