ARM GAS  /tmp/cc4JILYI.s 			page 1


   1              		.syntax unified
   2              		.cpu cortex-m4
   3              		.fpu softvfp
   4              		.eabi_attribute 20, 1
   5              		.eabi_attribute 21, 1
   6              		.eabi_attribute 23, 3
   7              		.eabi_attribute 24, 1
   8              		.eabi_attribute 25, 1
   9              		.eabi_attribute 26, 1
  10              		.eabi_attribute 30, 2
  11              		.eabi_attribute 34, 1
  12              		.eabi_attribute 18, 4
  13              		.thumb
  14              		.file	"pwm_lld.c"
  15              		.text
  16              	.Ltext0:
  17              		.cfi_sections	.debug_frame
  18              		.section	.text.VectorB8,"ax",%progbits
  19              		.align	2
  20              		.p2align 4,,15
  21              		.global	VectorB8
  22              		.thumb
  23              		.thumb_func
  24              		.type	VectorB8, %function
  25              	VectorB8:
  26              	.LFB119:
  27              		.file 1 "../../os/hal/platforms/STM32/TIMv1/pwm_lld.c"
  28              		.loc 1 235 0
  29              		.cfi_startproc
  30              		@ args = 0, pretend = 0, frame = 0
  31              		@ frame_needed = 0, uses_anonymous_args = 0
  32              	.LVL0:
  33 0000 38B5     		push	{r3, r4, r5, lr}
  34              		.cfi_def_cfa_offset 16
  35              		.cfi_offset 3, -16
  36              		.cfi_offset 4, -12
  37              		.cfi_offset 5, -8
  38              		.cfi_offset 14, -4
  39              	.LBB4:
  40              	.LBB5:
  41              		.loc 1 115 0
  42 0002 174D     		ldr	r5, .L27
  43 0004 2B69     		ldr	r3, [r5, #16]
  44 0006 1A69     		ldr	r2, [r3, #16]
  45              	.LVL1:
  46              		.loc 1 116 0
  47 0008 DC68     		ldr	r4, [r3, #12]
  48 000a 1440     		ands	r4, r4, r2
  49 000c A4B2     		uxth	r4, r4
  50              	.LVL2:
  51              		.loc 1 117 0
  52 000e E2B2     		uxtb	r2, r4
  53 0010 D243     		mvns	r2, r2
  54 0012 1A61     		str	r2, [r3, #16]
  55              		.loc 1 118 0
  56 0014 A307     		lsls	r3, r4, #30
  57 0016 1ED4     		bmi	.L23
ARM GAS  /tmp/cc4JILYI.s 			page 2


  58              	.L2:
  59              		.loc 1 120 0
  60 0018 6007     		lsls	r0, r4, #29
  61 001a 17D4     		bmi	.L24
  62              	.L3:
  63              		.loc 1 122 0
  64 001c 2107     		lsls	r1, r4, #28
  65 001e 10D4     		bmi	.L25
  66              	.L4:
  67              		.loc 1 124 0
  68 0020 E206     		lsls	r2, r4, #27
  69 0022 09D4     		bmi	.L26
  70              	.L5:
  71              		.loc 1 126 0
  72 0024 E307     		lsls	r3, r4, #31
  73 0026 03D5     		bpl	.L6
  74              		.loc 1 127 0
  75 0028 6B68     		ldr	r3, [r5, #4]
  76 002a 0D48     		ldr	r0, .L27
  77 002c 9B68     		ldr	r3, [r3, #8]
  78 002e 9847     		blx	r3
  79              	.LVL3:
  80              	.L6:
  81              	.LBE5:
  82              	.LBE4:
  83              		.loc 1 242 0
  84 0030 BDE83840 		pop	{r3, r4, r5, lr}
  85              	.LVL4:
  86              		.loc 1 241 0
  87 0034 FFF7FEBF 		b	_port_irq_epilogue
  88              	.LVL5:
  89              	.L26:
  90              	.LBB7:
  91              	.LBB6:
  92              		.loc 1 125 0
  93 0038 6B68     		ldr	r3, [r5, #4]
  94 003a 0948     		ldr	r0, .L27
  95 003c 9B6A     		ldr	r3, [r3, #40]
  96 003e 9847     		blx	r3
  97              	.LVL6:
  98 0040 F0E7     		b	.L5
  99              	.L25:
 100              		.loc 1 123 0
 101 0042 6B68     		ldr	r3, [r5, #4]
 102 0044 0648     		ldr	r0, .L27
 103 0046 1B6A     		ldr	r3, [r3, #32]
 104 0048 9847     		blx	r3
 105              	.LVL7:
 106 004a E9E7     		b	.L4
 107              	.L24:
 108              		.loc 1 121 0
 109 004c 6B68     		ldr	r3, [r5, #4]
 110 004e 0448     		ldr	r0, .L27
 111 0050 9B69     		ldr	r3, [r3, #24]
 112 0052 9847     		blx	r3
 113              	.LVL8:
 114 0054 E2E7     		b	.L3
ARM GAS  /tmp/cc4JILYI.s 			page 3


 115              	.L23:
 116              		.loc 1 119 0
 117 0056 6B68     		ldr	r3, [r5, #4]
 118 0058 2846     		mov	r0, r5
 119 005a 1B69     		ldr	r3, [r3, #16]
 120 005c 9847     		blx	r3
 121              	.LVL9:
 122 005e DBE7     		b	.L2
 123              	.L28:
 124              		.align	2
 125              	.L27:
 126 0060 00000000 		.word	.LANCHOR0
 127              	.LBE6:
 128              	.LBE7:
 129              		.cfi_endproc
 130              	.LFE119:
 131              		.size	VectorB8, .-VectorB8
 132 0064 AFF30080 		.section	.text.pwm_lld_init,"ax",%progbits
 132      AFF30080 
 132      AFF30080 
 133              		.align	2
 134              		.p2align 4,,15
 135              		.global	pwm_lld_init
 136              		.thumb
 137              		.thumb_func
 138              		.type	pwm_lld_init, %function
 139              	pwm_lld_init:
 140              	.LFB120:
 141              		.loc 1 345 0
 142              		.cfi_startproc
 143              		@ args = 0, pretend = 0, frame = 0
 144              		@ frame_needed = 0, uses_anonymous_args = 0
 145 0000 10B5     		push	{r4, lr}
 146              		.cfi_def_cfa_offset 8
 147              		.cfi_offset 4, -8
 148              		.cfi_offset 14, -4
 149              		.loc 1 367 0
 150 0002 034C     		ldr	r4, .L30
 151 0004 2046     		mov	r0, r4
 152 0006 FFF7FEFF 		bl	pwmObjectInit
 153              	.LVL10:
 154              		.loc 1 368 0
 155 000a 024B     		ldr	r3, .L30+4
 156 000c 2361     		str	r3, [r4, #16]
 157 000e 10BD     		pop	{r4, pc}
 158              	.L31:
 159              		.align	2
 160              	.L30:
 161 0010 00000000 		.word	.LANCHOR0
 162 0014 00080040 		.word	1073743872
 163              		.cfi_endproc
 164              	.LFE120:
 165              		.size	pwm_lld_init, .-pwm_lld_init
 166 0018 AFF30080 		.section	.text.pwm_lld_start,"ax",%progbits
 166      AFF30080 
 167              		.align	2
 168              		.p2align 4,,15
ARM GAS  /tmp/cc4JILYI.s 			page 4


 169              		.global	pwm_lld_start
 170              		.thumb
 171              		.thumb_func
 172              		.type	pwm_lld_start, %function
 173              	pwm_lld_start:
 174              	.LFB121:
 175              		.loc 1 399 0
 176              		.cfi_startproc
 177              		@ args = 0, pretend = 0, frame = 0
 178              		@ frame_needed = 0, uses_anonymous_args = 0
 179              	.LVL11:
 180              		.loc 1 403 0
 181 0000 0378     		ldrb	r3, [r0]	@ zero_extendqisi2
 182 0002 012B     		cmp	r3, #1
 183              		.loc 1 399 0
 184 0004 70B5     		push	{r4, r5, r6, lr}
 185              		.cfi_def_cfa_offset 16
 186              		.cfi_offset 4, -16
 187              		.cfi_offset 5, -12
 188              		.cfi_offset 6, -8
 189              		.cfi_offset 14, -4
 190              		.loc 1 399 0
 191 0006 0446     		mov	r4, r0
 192              		.loc 1 403 0
 193 0008 56D0     		beq	.L59
 194              		.loc 1 492 0
 195 000a 4268     		ldr	r2, [r0, #4]
 196              		.loc 1 491 0
 197 000c 0369     		ldr	r3, [r0, #16]
 198              		.loc 1 492 0
 199 000e 106B     		ldr	r0, [r2, #48]
 200              	.LVL12:
 201              		.loc 1 491 0
 202 0010 0021     		movs	r1, #0
 203              		.loc 1 492 0
 204 0012 20F0FF00 		bic	r0, r0, #255
 205              		.loc 1 491 0
 206 0016 1960     		str	r1, [r3]
 207              		.loc 1 492 0
 208 0018 D860     		str	r0, [r3, #12]
 209              		.loc 1 494 0
 210 001a 1961     		str	r1, [r3, #16]
 211              		.loc 1 495 0
 212 001c 5963     		str	r1, [r3, #52]
 213              		.loc 1 496 0
 214 001e 9963     		str	r1, [r3, #56]
 215              		.loc 1 497 0
 216 0020 D963     		str	r1, [r3, #60]
 217              		.loc 1 498 0
 218 0022 1964     		str	r1, [r3, #64]
 219              		.loc 1 499 0
 220 0024 5962     		str	r1, [r3, #36]
 221              	.L35:
 222              	.LVL13:
 223              		.loc 1 503 0
 224 0026 E668     		ldr	r6, [r4, #12]
 225 0028 1068     		ldr	r0, [r2]
ARM GAS  /tmp/cc4JILYI.s 			page 5


 226              		.loc 1 508 0
 227 002a 2589     		ldrh	r5, [r4, #8]
 228              		.loc 1 513 0
 229 002c D168     		ldr	r1, [r2, #12]
 230              		.loc 1 509 0
 231 002e D46A     		ldr	r4, [r2, #44]
 232              	.LVL14:
 233              		.loc 1 503 0
 234 0030 B6FBF0F0 		udiv	r0, r6, r0
 235              		.loc 1 508 0
 236 0034 013D     		subs	r5, r5, #1
 237              		.loc 1 503 0
 238 0036 0138     		subs	r0, r0, #1
 239              	.LVL15:
 240              		.loc 1 513 0
 241 0038 01F00F01 		and	r1, r1, #15
 242              		.loc 1 508 0
 243 003c ADB2     		uxth	r5, r5
 244              		.loc 1 507 0
 245 003e 80B2     		uxth	r0, r0
 246              	.LVL16:
 247              		.loc 1 513 0
 248 0040 0129     		cmp	r1, #1
 249              		.loc 1 507 0
 250 0042 9862     		str	r0, [r3, #40]
 251              	.LVL17:
 252              		.loc 1 508 0
 253 0044 DD62     		str	r5, [r3, #44]
 254              		.loc 1 509 0
 255 0046 5C60     		str	r4, [r3, #4]
 256              	.LVL18:
 257              		.loc 1 513 0
 258 0048 03D0     		beq	.L36
 259              		.loc 1 512 0
 260 004a 0229     		cmp	r1, #2
 261 004c 0CBF     		ite	eq
 262 004e 0321     		moveq	r1, #3
 263 0050 0021     		movne	r1, #0
 264              	.L36:
 265              	.LVL19:
 266              		.loc 1 521 0
 267 0052 5069     		ldr	r0, [r2, #20]
 268 0054 00F00F00 		and	r0, r0, #15
 269 0058 0128     		cmp	r0, #1
 270 005a 2AD0     		beq	.L40
 271 005c 0228     		cmp	r0, #2
 272 005e 26D0     		beq	.L60
 273              	.LVL20:
 274              	.L39:
 275              		.loc 1 529 0
 276 0060 D069     		ldr	r0, [r2, #28]
 277 0062 00F00F00 		and	r0, r0, #15
 278 0066 0128     		cmp	r0, #1
 279 0068 1ED0     		beq	.L43
 280 006a 0228     		cmp	r0, #2
 281 006c 1AD0     		beq	.L61
 282              	.LVL21:
ARM GAS  /tmp/cc4JILYI.s 			page 6


 283              	.L42:
 284              		.loc 1 537 0
 285 006e 506A     		ldr	r0, [r2, #36]
 286 0070 00F00F00 		and	r0, r0, #15
 287 0074 0128     		cmp	r0, #1
 288 0076 03D0     		beq	.L46
 289 0078 0228     		cmp	r0, #2
 290 007a 03D1     		bne	.L45
 291              		.loc 1 539 0
 292 007c 41F40051 		orr	r1, r1, #8192
 293              	.LVL22:
 294              	.L46:
 295              		.loc 1 541 0
 296 0080 41F48051 		orr	r1, r1, #4096
 297              	.LVL23:
 298              	.L45:
 299              		.loc 1 583 0
 300 0084 0120     		movs	r0, #1
 301              		.loc 1 582 0
 302 0086 1962     		str	r1, [r3, #32]
 303              		.loc 1 583 0
 304 0088 5861     		str	r0, [r3, #20]
 305              		.loc 1 584 0
 306 008a 9068     		ldr	r0, [r2, #8]
 307 008c DA68     		ldr	r2, [r3, #12]
 308              		.loc 1 585 0
 309 008e 0021     		movs	r1, #0
 310              	.LVL24:
 311              		.loc 1 584 0
 312 0090 8842     		cmp	r0, r1
 313 0092 0CBF     		ite	eq
 314 0094 1046     		moveq	r0, r2
 315 0096 42F00100 		orrne	r0, r2, #1
 316              		.loc 1 594 0
 317 009a 8522     		movs	r2, #133
 318              		.loc 1 584 0
 319 009c D860     		str	r0, [r3, #12]
 320              		.loc 1 585 0
 321 009e 1961     		str	r1, [r3, #16]
 322              		.loc 1 594 0
 323 00a0 1A60     		str	r2, [r3]
 324 00a2 70BD     		pop	{r4, r5, r6, pc}
 325              	.LVL25:
 326              	.L61:
 327              		.loc 1 531 0
 328 00a4 41F40071 		orr	r1, r1, #512
 329              	.LVL26:
 330              	.L43:
 331              		.loc 1 533 0
 332 00a8 41F48071 		orr	r1, r1, #256
 333              	.LVL27:
 334 00ac DFE7     		b	.L42
 335              	.L60:
 336              		.loc 1 523 0
 337 00ae 41F02001 		orr	r1, r1, #32
 338              	.LVL28:
 339              	.L40:
ARM GAS  /tmp/cc4JILYI.s 			page 7


 340              		.loc 1 525 0
 341 00b2 41F01001 		orr	r1, r1, #16
 342              	.LVL29:
 343 00b6 D3E7     		b	.L39
 344              	.LVL30:
 345              	.L59:
 346              		.loc 1 439 0
 347 00b8 0D4B     		ldr	r3, .L63
 348 00ba 9842     		cmp	r0, r3
 349 00bc 06D0     		beq	.L62
 350              	.LVL31:
 351              	.L34:
 352              		.loc 1 484 0
 353 00be 2369     		ldr	r3, [r4, #16]
 354 00c0 6268     		ldr	r2, [r4, #4]
 355 00c2 46F66801 		movw	r1, #26728
 356 00c6 9961     		str	r1, [r3, #24]
 357              		.loc 1 486 0
 358 00c8 D961     		str	r1, [r3, #28]
 359 00ca ACE7     		b	.L35
 360              	.LVL32:
 361              	.L62:
 362              		.loc 1 440 0
 363 00cc 094B     		ldr	r3, .L63+4
 364 00ce 1A6C     		ldr	r2, [r3, #64]
 365 00d0 42F00402 		orr	r2, r2, #4
 366 00d4 1A64     		str	r2, [r3, #64]
 367              		.loc 1 441 0
 368 00d6 196A     		ldr	r1, [r3, #32]
 369 00d8 0022     		movs	r2, #0
 370 00da 41F00401 		orr	r1, r1, #4
 371 00de 1962     		str	r1, [r3, #32]
 372              		.loc 1 442 0
 373 00e0 1E20     		movs	r0, #30
 374              	.LVL33:
 375              		.loc 1 441 0
 376 00e2 1A62     		str	r2, [r3, #32]
 377              		.loc 1 442 0
 378 00e4 7021     		movs	r1, #112
 379 00e6 FFF7FEFF 		bl	nvicEnableVector
 380              	.LVL34:
 381              		.loc 1 444 0
 382 00ea 034B     		ldr	r3, .L63+8
 383 00ec E360     		str	r3, [r4, #12]
 384 00ee E6E7     		b	.L34
 385              	.L64:
 386              		.align	2
 387              	.L63:
 388 00f0 00000000 		.word	.LANCHOR0
 389 00f4 00380240 		.word	1073887232
 390 00f8 00BD0105 		.word	84000000
 391              		.cfi_endproc
 392              	.LFE121:
 393              		.size	pwm_lld_start, .-pwm_lld_start
 394 00fc AFF30080 		.section	.text.pwm_lld_stop,"ax",%progbits
 395              		.align	2
 396              		.p2align 4,,15
ARM GAS  /tmp/cc4JILYI.s 			page 8


 397              		.global	pwm_lld_stop
 398              		.thumb
 399              		.thumb_func
 400              		.type	pwm_lld_stop, %function
 401              	pwm_lld_stop:
 402              	.LFB122:
 403              		.loc 1 605 0
 404              		.cfi_startproc
 405              		@ args = 0, pretend = 0, frame = 0
 406              		@ frame_needed = 0, uses_anonymous_args = 0
 407              	.LVL35:
 408 0000 08B5     		push	{r3, lr}
 409              		.cfi_def_cfa_offset 8
 410              		.cfi_offset 3, -8
 411              		.cfi_offset 14, -4
 412              		.loc 1 608 0
 413 0002 0378     		ldrb	r3, [r0]	@ zero_extendqisi2
 414 0004 022B     		cmp	r3, #2
 415 0006 00D0     		beq	.L69
 416              	.LVL36:
 417              	.L65:
 418 0008 08BD     		pop	{r3, pc}
 419              	.LVL37:
 420              	.L69:
 421              		.loc 1 636 0
 422 000a 0849     		ldr	r1, .L70
 423              		.loc 1 609 0
 424 000c 0369     		ldr	r3, [r0, #16]
 425 000e 0022     		movs	r2, #0
 426              		.loc 1 636 0
 427 0010 8842     		cmp	r0, r1
 428              		.loc 1 609 0
 429 0012 1A60     		str	r2, [r3]
 430              		.loc 1 610 0
 431 0014 DA60     		str	r2, [r3, #12]
 432              		.loc 1 611 0
 433 0016 1A61     		str	r2, [r3, #16]
 434              		.loc 1 636 0
 435 0018 F6D1     		bne	.L65
 436              		.loc 1 637 0
 437 001a 1E20     		movs	r0, #30
 438              	.LVL38:
 439 001c FFF7FEFF 		bl	nvicDisableVector
 440              	.LVL39:
 441              		.loc 1 638 0
 442 0020 034B     		ldr	r3, .L70+4
 443 0022 1A6C     		ldr	r2, [r3, #64]
 444 0024 22F00402 		bic	r2, r2, #4
 445 0028 1A64     		str	r2, [r3, #64]
 446 002a EDE7     		b	.L65
 447              	.L71:
 448              		.align	2
 449              	.L70:
 450 002c 00000000 		.word	.LANCHOR0
 451 0030 00380240 		.word	1073887232
 452              		.cfi_endproc
 453              	.LFE122:
ARM GAS  /tmp/cc4JILYI.s 			page 9


 454              		.size	pwm_lld_stop, .-pwm_lld_stop
 455 0034 AFF30080 		.section	.text.pwm_lld_enable_channel,"ax",%progbits
 455      AFF30080 
 455      AFF30080 
 456              		.align	2
 457              		.p2align 4,,15
 458              		.global	pwm_lld_enable_channel
 459              		.thumb
 460              		.thumb_func
 461              		.type	pwm_lld_enable_channel, %function
 462              	pwm_lld_enable_channel:
 463              	.LFB123:
 464              		.loc 1 677 0
 465              		.cfi_startproc
 466              		@ args = 0, pretend = 0, frame = 0
 467              		@ frame_needed = 0, uses_anonymous_args = 0
 468              		@ link register save eliminated.
 469              	.LVL40:
 470 0000 10B4     		push	{r4}
 471              		.cfi_def_cfa_offset 4
 472              		.cfi_offset 4, -4
 473              		.loc 1 682 0
 474 0002 4468     		ldr	r4, [r0, #4]
 475              		.loc 1 679 0
 476 0004 0369     		ldr	r3, [r0, #16]
 477              		.loc 1 682 0
 478 0006 04EBC100 		add	r0, r4, r1, lsl #3
 479              	.LVL41:
 480              		.loc 1 679 0
 481 000a 01F10C04 		add	r4, r1, #12
 482              		.loc 1 682 0
 483 000e 0069     		ldr	r0, [r0, #16]
 484              		.loc 1 679 0
 485 0010 03EB8404 		add	r4, r3, r4, lsl #2
 486 0014 6260     		str	r2, [r4, #4]
 487              		.loc 1 682 0
 488 0016 48B1     		cbz	r0, .L72
 489              	.LBB8:
 490              		.loc 1 686 0
 491 0018 0220     		movs	r0, #2
 492              		.loc 1 683 0
 493 001a DA68     		ldr	r2, [r3, #12]
 494              	.LVL42:
 495              		.loc 1 686 0
 496 001c 00FA01F1 		lsl	r1, r0, r1
 497              	.LVL43:
 498 0020 1142     		tst	r1, r2
 499 0022 03D1     		bne	.L72
 500              		.loc 1 687 0
 501 0024 0A43     		orrs	r2, r2, r1
 502              	.LVL44:
 503              		.loc 1 688 0
 504 0026 C943     		mvns	r1, r1
 505              		.loc 1 687 0
 506 0028 DA60     		str	r2, [r3, #12]
 507              		.loc 1 688 0
 508 002a 1961     		str	r1, [r3, #16]
ARM GAS  /tmp/cc4JILYI.s 			page 10


 509              	.L72:
 510              	.LBE8:
 511              		.loc 1 691 0
 512 002c 5DF8044B 		ldr	r4, [sp], #4
 513 0030 7047     		bx	lr
 514              		.cfi_endproc
 515              	.LFE123:
 516              		.size	pwm_lld_enable_channel, .-pwm_lld_enable_channel
 517 0032 00BFAFF3 		.section	.text.pwm_lld_disable_channel,"ax",%progbits
 517      0080AFF3 
 517      0080AFF3 
 517      0080
 518              		.align	2
 519              		.p2align 4,,15
 520              		.global	pwm_lld_disable_channel
 521              		.thumb
 522              		.thumb_func
 523              		.type	pwm_lld_disable_channel, %function
 524              	pwm_lld_disable_channel:
 525              	.LFB124:
 526              		.loc 1 705 0
 527              		.cfi_startproc
 528              		@ args = 0, pretend = 0, frame = 0
 529              		@ frame_needed = 0, uses_anonymous_args = 0
 530              		@ link register save eliminated.
 531              	.LVL45:
 532              		.loc 1 707 0
 533 0000 0369     		ldr	r3, [r0, #16]
 534 0002 01F10C02 		add	r2, r1, #12
 535 0006 03EB8202 		add	r2, r3, r2, lsl #2
 536 000a 0020     		movs	r0, #0
 537              	.LVL46:
 538 000c 5060     		str	r0, [r2, #4]
 539              		.loc 1 708 0
 540 000e DA68     		ldr	r2, [r3, #12]
 541 0010 0220     		movs	r0, #2
 542 0012 00FA01F1 		lsl	r1, r0, r1
 543              	.LVL47:
 544 0016 22EA0101 		bic	r1, r2, r1
 545 001a D960     		str	r1, [r3, #12]
 546 001c 7047     		bx	lr
 547              		.cfi_endproc
 548              	.LFE124:
 549              		.size	pwm_lld_disable_channel, .-pwm_lld_disable_channel
 550              		.global	PWMD4
 551 001e 00BF     		.section	.bss.PWMD4,"aw",%nobits
 552              		.align	2
 553              		.set	.LANCHOR0,. + 0
 554              		.type	PWMD4, %object
 555              		.size	PWMD4, 20
 556              	PWMD4:
 557 0000 00000000 		.space	20
 557      00000000 
 557      00000000 
 557      00000000 
 557      00000000 
 558              		.text
ARM GAS  /tmp/cc4JILYI.s 			page 11


 559              	.Letext0:
 560              		.file 2 "/opt/ARM/arm-none-eabi/include/machine/_default_types.h"
 561              		.file 3 "/opt/ARM/arm-none-eabi/include/stdint.h"
 562              		.file 4 "../../os/hal/platforms/STM32F4xx/stm32f4xx.h"
 563              		.file 5 "../../os/hal/include/pwm.h"
 564              		.file 6 "../../os/hal/platforms/STM32/TIMv1/pwm_lld.h"
 565              		.file 7 "../../os/hal/platforms/STM32/TIMv1/stm32_tim.h"
 566              		.file 8 "../../os/ports/common/ARMCMx/CMSIS/include/core_cm4.h"
 567              		.file 9 "../../os/ports/common/ARMCMx/nvic.h"
 568              		.file 10 "../../os/ports/GCC/ARMCMx/chcore_v7m.h"