ARM GAS  /tmp/cc2fUkl8.s 			page 1


   1              		.syntax unified
   2              		.cpu cortex-m4
   3              		.fpu softvfp
   4              		.eabi_attribute 20, 1
   5              		.eabi_attribute 21, 1
   6              		.eabi_attribute 23, 3
   7              		.eabi_attribute 24, 1
   8              		.eabi_attribute 25, 1
   9              		.eabi_attribute 26, 1
  10              		.eabi_attribute 30, 2
  11              		.eabi_attribute 34, 1
  12              		.eabi_attribute 18, 4
  13              		.thumb
  14              		.file	"test.c"
  15              		.text
  16              	.Ltext0:
  17              		.cfi_sections	.debug_frame
  18              		.section	.text.tmr,"ax",%progbits
  19              		.align	2
  20              		.p2align 4,,15
  21              		.thumb
  22              		.thumb_func
  23              		.type	tmr, %function
  24              	tmr:
  25              	.LFB132:
  26              		.file 1 "../../test/test.c"
  27              		.loc 1 261 0
  28              		.cfi_startproc
  29              		@ args = 0, pretend = 0, frame = 0
  30              		@ frame_needed = 0, uses_anonymous_args = 0
  31              		@ link register save eliminated.
  32              	.LVL0:
  33              		.loc 1 264 0
  34 0000 014B     		ldr	r3, .L2
  35 0002 0122     		movs	r2, #1
  36 0004 1A70     		strb	r2, [r3]
  37 0006 7047     		bx	lr
  38              	.L3:
  39              		.align	2
  40              	.L2:
  41 0008 00000000 		.word	.LANCHOR0
  42              		.cfi_endproc
  43              	.LFE132:
  44              		.size	tmr, .-tmr
  45 000c AFF30080 		.section	.text.print_line,"ax",%progbits
  46              		.align	2
  47              		.p2align 4,,15
  48              		.thumb
  49              		.thumb_func
  50              		.type	print_line, %function
  51              	print_line:
  52              	.LFB135:
  53              		.loc 1 300 0
  54              		.cfi_startproc
  55              		@ args = 0, pretend = 0, frame = 0
  56              		@ frame_needed = 0, uses_anonymous_args = 0
  57              	.LVL1:
ARM GAS  /tmp/cc2fUkl8.s 			page 2


  58 0000 70B5     		push	{r4, r5, r6, lr}
  59              		.cfi_def_cfa_offset 16
  60              		.cfi_offset 4, -16
  61              		.cfi_offset 5, -12
  62              		.cfi_offset 6, -8
  63              		.cfi_offset 14, -4
  64 0002 084E     		ldr	r6, .L8
  65              		.loc 1 300 0
  66 0004 4C24     		movs	r4, #76
  67              	.LVL2:
  68              	.L6:
  69              		.loc 1 304 0 discriminator 2
  70 0006 3068     		ldr	r0, [r6]
  71 0008 064D     		ldr	r5, .L8
  72 000a 0368     		ldr	r3, [r0]
  73 000c 2D21     		movs	r1, #45
  74 000e 9B68     		ldr	r3, [r3, #8]
  75 0010 9847     		blx	r3
  76              	.LVL3:
  77              		.loc 1 303 0 discriminator 2
  78 0012 013C     		subs	r4, r4, #1
  79              	.LVL4:
  80 0014 F7D1     		bne	.L6
  81              		.loc 1 305 0
  82 0016 2868     		ldr	r0, [r5]
  83 0018 0349     		ldr	r1, .L8+4
  84 001a 0368     		ldr	r3, [r0]
  85 001c 0222     		movs	r2, #2
  86 001e 1B68     		ldr	r3, [r3]
  87 0020 9847     		blx	r3
  88              	.LVL5:
  89 0022 70BD     		pop	{r4, r5, r6, pc}
  90              	.LVL6:
  91              	.L9:
  92              		.align	2
  93              	.L8:
  94 0024 00000000 		.word	.LANCHOR1
  95 0028 00000000 		.word	.LC0
  96              		.cfi_endproc
  97              	.LFE135:
  98              		.size	print_line, .-print_line
  99 002c AFF30080 		.section	.text.test_printn,"ax",%progbits
 100              		.align	2
 101              		.p2align 4,,15
 102              		.global	test_printn
 103              		.thumb
 104              		.thumb_func
 105              		.type	test_printn, %function
 106              	test_printn:
 107              	.LFB118:
 108              		.loc 1 91 0
 109              		.cfi_startproc
 110              		@ args = 0, pretend = 0, frame = 16
 111              		@ frame_needed = 0, uses_anonymous_args = 0
 112              	.LVL7:
 113 0000 70B5     		push	{r4, r5, r6, lr}
 114              		.cfi_def_cfa_offset 16
ARM GAS  /tmp/cc2fUkl8.s 			page 3


 115              		.cfi_offset 4, -16
 116              		.cfi_offset 5, -12
 117              		.cfi_offset 6, -8
 118              		.cfi_offset 14, -4
 119 0002 84B0     		sub	sp, sp, #16
 120              		.cfi_def_cfa_offset 32
 121              		.loc 1 94 0
 122 0004 18B3     		cbz	r0, .L18
 123 0006 0DF10105 		add	r5, sp, #1
 124              		.loc 1 99 0
 125 000a 154E     		ldr	r6, .L20
 126 000c 2B46     		mov	r3, r5
 127              	.LVL8:
 128              	.L14:
 129 000e A6FB0012 		umull	r1, r2, r6, r0
 130 0012 D208     		lsrs	r2, r2, #3
 131 0014 02EB8201 		add	r1, r2, r2, lsl #2
 132 0018 A0EB4101 		sub	r1, r0, r1, lsl #1
 133 001c 3031     		adds	r1, r1, #48
 134 001e C9B2     		uxtb	r1, r1
 135 0020 03F8011C 		strb	r1, [r3, #-1]
 136 0024 1C46     		mov	r4, r3
 137              	.LVL9:
 138              		.loc 1 98 0
 139 0026 1046     		mov	r0, r2
 140 0028 0133     		adds	r3, r3, #1
 141              	.LVL10:
 142 002a 002A     		cmp	r2, #0
 143 002c EFD1     		bne	.L14
 144              		.loc 1 100 0 discriminator 1
 145 002e 6B46     		mov	r3, sp
 146 0030 9C42     		cmp	r4, r3
 147 0032 0AD9     		bls	.L10
 148 0034 0B4E     		ldr	r6, .L20+4
 149 0036 02E0     		b	.L17
 150              	.LVL11:
 151              	.L19:
 152 0038 14F8021C 		ldrb	r1, [r4, #-2]	@ zero_extendqisi2
 153 003c 013C     		subs	r4, r4, #1
 154              	.LVL12:
 155              	.L17:
 156              		.loc 1 101 0
 157 003e 3068     		ldr	r0, [r6]
 158              	.LVL13:
 159 0040 0368     		ldr	r3, [r0]
 160 0042 9B68     		ldr	r3, [r3, #8]
 161 0044 9847     		blx	r3
 162              	.LVL14:
 163              		.loc 1 100 0
 164 0046 AC42     		cmp	r4, r5
 165 0048 F6D1     		bne	.L19
 166              	.LVL15:
 167              	.L10:
 168              		.loc 1 103 0
 169 004a 04B0     		add	sp, sp, #16
 170              		@ sp needed
 171 004c 70BD     		pop	{r4, r5, r6, pc}
ARM GAS  /tmp/cc2fUkl8.s 			page 4


 172              	.LVL16:
 173              	.L18:
 174              	.LBB50:
 175              	.LBB51:
 176              		.loc 1 95 0
 177 004e 054B     		ldr	r3, .L20+4
 178 0050 1868     		ldr	r0, [r3]
 179              	.LVL17:
 180 0052 0368     		ldr	r3, [r0]
 181 0054 3021     		movs	r1, #48
 182 0056 9B68     		ldr	r3, [r3, #8]
 183 0058 9847     		blx	r3
 184              	.LVL18:
 185              	.LBE51:
 186              	.LBE50:
 187              		.loc 1 103 0
 188 005a 04B0     		add	sp, sp, #16
 189              		@ sp needed
 190 005c 70BD     		pop	{r4, r5, r6, pc}
 191              	.L21:
 192 005e 00BF     		.align	2
 193              	.L20:
 194 0060 CDCCCCCC 		.word	-858993459
 195 0064 00000000 		.word	.LANCHOR1
 196              		.cfi_endproc
 197              	.LFE118:
 198              		.size	test_printn, .-test_printn
 199 0068 AFF30080 		.section	.text.test_print,"ax",%progbits
 199      AFF30080 
 200              		.align	2
 201              		.p2align 4,,15
 202              		.global	test_print
 203              		.thumb
 204              		.thumb_func
 205              		.type	test_print, %function
 206              	test_print:
 207              	.LFB119:
 208              		.loc 1 110 0
 209              		.cfi_startproc
 210              		@ args = 0, pretend = 0, frame = 0
 211              		@ frame_needed = 0, uses_anonymous_args = 0
 212              	.LVL19:
 213 0000 38B5     		push	{r3, r4, r5, lr}
 214              		.cfi_def_cfa_offset 16
 215              		.cfi_offset 3, -16
 216              		.cfi_offset 4, -12
 217              		.cfi_offset 5, -8
 218              		.cfi_offset 14, -4
 219              		.loc 1 112 0
 220 0002 0178     		ldrb	r1, [r0]	@ zero_extendqisi2
 221 0004 49B1     		cbz	r1, .L22
 222 0006 054D     		ldr	r5, .L29
 223 0008 0446     		mov	r4, r0
 224              	.LVL20:
 225              	.L25:
 226              		.loc 1 113 0
 227 000a 2868     		ldr	r0, [r5]
ARM GAS  /tmp/cc2fUkl8.s 			page 5


 228              	.LVL21:
 229 000c 0368     		ldr	r3, [r0]
 230 000e 9B68     		ldr	r3, [r3, #8]
 231 0010 9847     		blx	r3
 232              	.LVL22:
 233              		.loc 1 112 0
 234 0012 14F8011F 		ldrb	r1, [r4, #1]!	@ zero_extendqisi2
 235              	.LVL23:
 236 0016 0029     		cmp	r1, #0
 237 0018 F7D1     		bne	.L25
 238              	.LVL24:
 239              	.L22:
 240 001a 38BD     		pop	{r3, r4, r5, pc}
 241              	.L30:
 242              		.align	2
 243              	.L29:
 244 001c 00000000 		.word	.LANCHOR1
 245              		.cfi_endproc
 246              	.LFE119:
 247              		.size	test_print, .-test_print
 248              		.section	.text.test_println,"ax",%progbits
 249              		.align	2
 250              		.p2align 4,,15
 251              		.global	test_println
 252              		.thumb
 253              		.thumb_func
 254              		.type	test_println, %function
 255              	test_println:
 256              	.LFB120:
 257              		.loc 1 121 0
 258              		.cfi_startproc
 259              		@ args = 0, pretend = 0, frame = 0
 260              		@ frame_needed = 0, uses_anonymous_args = 0
 261              	.LVL25:
 262 0000 38B5     		push	{r3, r4, r5, lr}
 263              		.cfi_def_cfa_offset 16
 264              		.cfi_offset 3, -16
 265              		.cfi_offset 4, -12
 266              		.cfi_offset 5, -8
 267              		.cfi_offset 14, -4
 268              	.LBB52:
 269              	.LBB53:
 270              		.loc 1 112 0
 271 0002 0178     		ldrb	r1, [r0]	@ zero_extendqisi2
 272 0004 084D     		ldr	r5, .L39
 273 0006 0446     		mov	r4, r0
 274 0008 39B1     		cbz	r1, .L33
 275              	.LVL26:
 276              	.L34:
 277              		.loc 1 113 0
 278 000a 2868     		ldr	r0, [r5]
 279              	.LVL27:
 280 000c 0368     		ldr	r3, [r0]
 281 000e 9B68     		ldr	r3, [r3, #8]
 282 0010 9847     		blx	r3
 283              	.LVL28:
 284              		.loc 1 112 0
ARM GAS  /tmp/cc2fUkl8.s 			page 6


 285 0012 14F8011F 		ldrb	r1, [r4, #1]!	@ zero_extendqisi2
 286              	.LVL29:
 287 0016 0029     		cmp	r1, #0
 288 0018 F7D1     		bne	.L34
 289              	.LVL30:
 290              	.L33:
 291              	.LBE53:
 292              	.LBE52:
 293              		.loc 1 124 0
 294 001a 2868     		ldr	r0, [r5]
 295 001c 0349     		ldr	r1, .L39+4
 296 001e 0368     		ldr	r3, [r0]
 297 0020 0222     		movs	r2, #2
 298 0022 1B68     		ldr	r3, [r3]
 299 0024 9847     		blx	r3
 300              	.LVL31:
 301 0026 38BD     		pop	{r3, r4, r5, pc}
 302              	.L40:
 303              		.align	2
 304              	.L39:
 305 0028 00000000 		.word	.LANCHOR1
 306 002c 00000000 		.word	.LC0
 307              		.cfi_endproc
 308              	.LFE120:
 309              		.size	test_println, .-test_println
 310              		.section	.text.test_emit_token,"ax",%progbits
 311              		.align	2
 312              		.p2align 4,,15
 313              		.global	test_emit_token
 314              		.thumb
 315              		.thumb_func
 316              		.type	test_emit_token, %function
 317              	test_emit_token:
 318              	.LFB123:
 319              		.loc 1 147 0
 320              		.cfi_startproc
 321              		@ args = 0, pretend = 0, frame = 0
 322              		@ frame_needed = 0, uses_anonymous_args = 0
 323              		@ link register save eliminated.
 324              	.LVL32:
 325              	.LBB54:
 326              		.loc 1 149 0
 327 0000 2023     		movs	r3, #32
 328              	@ 149 "../../test/test.c" 1
 329 0002 83F31188 		msr     BASEPRI, r3
 330              	@ 0 "" 2
 331              		.thumb
 332              	.LBE54:
 333              		.loc 1 150 0
 334 0006 044B     		ldr	r3, .L42
 335 0008 1A68     		ldr	r2, [r3]
 336 000a 511C     		adds	r1, r2, #1
 337 000c 1960     		str	r1, [r3]
 338 000e 1070     		strb	r0, [r2]
 339              	.LBB55:
 340              		.loc 1 151 0
 341 0010 0023     		movs	r3, #0
ARM GAS  /tmp/cc2fUkl8.s 			page 7


 342              	@ 151 "../../test/test.c" 1
 343 0012 83F31188 		msr     BASEPRI, r3
 344              	@ 0 "" 2
 345              		.thumb
 346 0016 7047     		bx	lr
 347              	.L43:
 348              		.align	2
 349              	.L42:
 350 0018 00000000 		.word	.LANCHOR2
 351              	.LBE55:
 352              		.cfi_endproc
 353              	.LFE123:
 354              		.size	test_emit_token, .-test_emit_token
 355 001c AFF30080 		.section	.text._test_fail,"ax",%progbits
 356              		.align	2
 357              		.p2align 4,,15
 358              		.global	_test_fail
 359              		.thumb
 360              		.thumb_func
 361              		.type	_test_fail, %function
 362              	_test_fail:
 363              	.LFB124:
 364              		.loc 1 157 0
 365              		.cfi_startproc
 366              		@ args = 0, pretend = 0, frame = 0
 367              		@ frame_needed = 0, uses_anonymous_args = 0
 368              		@ link register save eliminated.
 369              	.LVL33:
 370              		.loc 1 161 0
 371 0000 0349     		ldr	r1, .L45
 372              		.loc 1 159 0
 373 0002 044A     		ldr	r2, .L45+4
 374              		.loc 1 160 0
 375 0004 044B     		ldr	r3, .L45+8
 376              		.loc 1 161 0
 377 0006 0860     		str	r0, [r1]
 378              		.loc 1 159 0
 379 0008 0120     		movs	r0, #1
 380              	.LVL34:
 381 000a 1070     		strb	r0, [r2]
 382              		.loc 1 160 0
 383 000c 1870     		strb	r0, [r3]
 384              		.loc 1 163 0
 385 000e 7047     		bx	lr
 386              	.L46:
 387              		.align	2
 388              	.L45:
 389 0010 00000000 		.word	.LANCHOR5
 390 0014 00000000 		.word	.LANCHOR3
 391 0018 00000000 		.word	.LANCHOR4
 392              		.cfi_endproc
 393              	.LFE124:
 394              		.size	_test_fail, .-_test_fail
 395 001c AFF30080 		.section	.text._test_assert,"ax",%progbits
 396              		.align	2
 397              		.p2align 4,,15
 398              		.global	_test_assert
ARM GAS  /tmp/cc2fUkl8.s 			page 8


 399              		.thumb
 400              		.thumb_func
 401              		.type	_test_assert, %function
 402              	_test_assert:
 403              	.LFB125:
 404              		.loc 1 165 0
 405              		.cfi_startproc
 406              		@ args = 0, pretend = 0, frame = 0
 407              		@ frame_needed = 0, uses_anonymous_args = 0
 408              		@ link register save eliminated.
 409              	.LVL35:
 410 0000 10B4     		push	{r4}
 411              		.cfi_def_cfa_offset 4
 412              		.cfi_offset 4, -4
 413              		.loc 1 167 0
 414 0002 51B9     		cbnz	r1, .L49
 415              	.LVL36:
 416              	.LBB56:
 417              	.LBB57:
 418              		.loc 1 159 0
 419 0004 074C     		ldr	r4, .L50
 420              		.loc 1 160 0
 421 0006 0849     		ldr	r1, .L50+4
 422              	.LVL37:
 423              		.loc 1 161 0
 424 0008 084A     		ldr	r2, .L50+8
 425              		.loc 1 159 0
 426 000a 0123     		movs	r3, #1
 427 000c 2370     		strb	r3, [r4]
 428              		.loc 1 161 0
 429 000e 1060     		str	r0, [r2]
 430              		.loc 1 160 0
 431 0010 0B70     		strb	r3, [r1]
 432              	.LBE57:
 433              	.LBE56:
 434              		.loc 1 170 0
 435 0012 1846     		mov	r0, r3
 436              	.LVL38:
 437 0014 5DF8044B 		ldr	r4, [sp], #4
 438 0018 7047     		bx	lr
 439              	.LVL39:
 440              	.L49:
 441              		.loc 1 169 0
 442 001a 0023     		movs	r3, #0
 443              		.loc 1 170 0
 444 001c 1846     		mov	r0, r3
 445              	.LVL40:
 446 001e 5DF8044B 		ldr	r4, [sp], #4
 447 0022 7047     		bx	lr
 448              	.L51:
 449              		.align	2
 450              	.L50:
 451 0024 00000000 		.word	.LANCHOR3
 452 0028 00000000 		.word	.LANCHOR4
 453 002c 00000000 		.word	.LANCHOR5
 454              		.cfi_endproc
 455              	.LFE125:
ARM GAS  /tmp/cc2fUkl8.s 			page 9


 456              		.size	_test_assert, .-_test_assert
 457              		.section	.text._test_assert_sequence,"ax",%progbits
 458              		.align	2
 459              		.p2align 4,,15
 460              		.global	_test_assert_sequence
 461              		.thumb
 462              		.thumb_func
 463              		.type	_test_assert_sequence, %function
 464              	_test_assert_sequence:
 465              	.LFB126:
 466              		.loc 1 172 0
 467              		.cfi_startproc
 468              		@ args = 0, pretend = 0, frame = 0
 469              		@ frame_needed = 0, uses_anonymous_args = 0
 470              		@ link register save eliminated.
 471              	.LVL41:
 472 0000 F0B4     		push	{r4, r5, r6, r7}
 473              		.cfi_def_cfa_offset 16
 474              		.cfi_offset 4, -16
 475              		.cfi_offset 5, -12
 476              		.cfi_offset 6, -8
 477              		.cfi_offset 7, -4
 478 0002 0E4E     		ldr	r6, .L58
 479              		.loc 1 173 0
 480 0004 0E4F     		ldr	r7, .L58+4
 481 0006 3568     		ldr	r5, [r6]
 482 0008 3B46     		mov	r3, r7
 483              		.loc 1 174 0
 484 000a 05E0     		b	.L53
 485              	.LVL42:
 486              	.L56:
 487              		.loc 1 175 0
 488 000c 13F8014B 		ldrb	r4, [r3], #1	@ zero_extendqisi2
 489              	.LVL43:
 490 0010 11F8012B 		ldrb	r2, [r1], #1	@ zero_extendqisi2
 491              	.LVL44:
 492 0014 9442     		cmp	r4, r2
 493 0016 07D1     		bne	.L57
 494              	.LVL45:
 495              	.L53:
 496              		.loc 1 174 0 discriminator 1
 497 0018 AB42     		cmp	r3, r5
 498 001a F7D3     		bcc	.L56
 499              		.loc 1 178 0
 500 001c 0B78     		ldrb	r3, [r1]	@ zero_extendqisi2
 501              	.LVL46:
 502 001e 1BB9     		cbnz	r3, .L57
 503              	.LBB58:
 504              	.LBB59:
 505              		.loc 1 132 0
 506 0020 3760     		str	r7, [r6]
 507              	.LBE59:
 508              	.LBE58:
 509              		.loc 1 182 0
 510 0022 1846     		mov	r0, r3
 511              	.LVL47:
 512 0024 F0BC     		pop	{r4, r5, r6, r7}
ARM GAS  /tmp/cc2fUkl8.s 			page 10


 513 0026 7047     		bx	lr
 514              	.LVL48:
 515              	.L57:
 516              	.LBB60:
 517              	.LBB61:
 518              		.loc 1 159 0
 519 0028 064C     		ldr	r4, .L58+8
 520              		.loc 1 160 0
 521 002a 0749     		ldr	r1, .L58+12
 522              		.loc 1 161 0
 523 002c 074A     		ldr	r2, .L58+16
 524              		.loc 1 159 0
 525 002e 0123     		movs	r3, #1
 526 0030 2370     		strb	r3, [r4]
 527              		.loc 1 161 0
 528 0032 1060     		str	r0, [r2]
 529              		.loc 1 160 0
 530 0034 0B70     		strb	r3, [r1]
 531              	.LBE61:
 532              	.LBE60:
 533              		.loc 1 182 0
 534 0036 1846     		mov	r0, r3
 535              	.LVL49:
 536 0038 F0BC     		pop	{r4, r5, r6, r7}
 537 003a 7047     		bx	lr
 538              	.L59:
 539              		.align	2
 540              	.L58:
 541 003c 00000000 		.word	.LANCHOR2
 542 0040 00000000 		.word	.LANCHOR6
 543 0044 00000000 		.word	.LANCHOR3
 544 0048 00000000 		.word	.LANCHOR4
 545 004c 00000000 		.word	.LANCHOR5
 546              		.cfi_endproc
 547              	.LFE126:
 548              		.size	_test_assert_sequence, .-_test_assert_sequence
 549              		.section	.text._test_assert_time_window,"ax",%progbits
 550              		.align	2
 551              		.p2align 4,,15
 552              		.global	_test_assert_time_window
 553              		.thumb
 554              		.thumb_func
 555              		.type	_test_assert_time_window, %function
 556              	_test_assert_time_window:
 557              	.LFB127:
 558              		.loc 1 184 0
 559              		.cfi_startproc
 560              		@ args = 0, pretend = 0, frame = 0
 561              		@ frame_needed = 0, uses_anonymous_args = 0
 562              		@ link register save eliminated.
 563              	.LVL50:
 564              		.loc 1 186 0
 565 0000 0B4B     		ldr	r3, .L63
 566 0002 DB68     		ldr	r3, [r3, #12]
 567 0004 521A     		subs	r2, r2, r1
 568              	.LVL51:
 569 0006 591A     		subs	r1, r3, r1
ARM GAS  /tmp/cc2fUkl8.s 			page 11


 570              	.LVL52:
 571              	.LBB62:
 572              	.LBB63:
 573              		.loc 1 167 0
 574 0008 9142     		cmp	r1, r2
 575              	.LBE63:
 576              	.LBE62:
 577              		.loc 1 184 0
 578 000a 10B4     		push	{r4}
 579              		.cfi_def_cfa_offset 4
 580              		.cfi_offset 4, -4
 581              	.LBB68:
 582              	.LBB66:
 583              		.loc 1 167 0
 584 000c 0AD3     		bcc	.L62
 585              	.LVL53:
 586              	.LBB64:
 587              	.LBB65:
 588              		.loc 1 159 0
 589 000e 094C     		ldr	r4, .L63+4
 590              		.loc 1 160 0
 591 0010 0949     		ldr	r1, .L63+8
 592              		.loc 1 161 0
 593 0012 0A4A     		ldr	r2, .L63+12
 594              		.loc 1 159 0
 595 0014 0123     		movs	r3, #1
 596              	.LVL54:
 597 0016 2370     		strb	r3, [r4]
 598              		.loc 1 161 0
 599 0018 1060     		str	r0, [r2]
 600              		.loc 1 160 0
 601 001a 0B70     		strb	r3, [r1]
 602              	.LBE65:
 603              	.LBE64:
 604              	.LBE66:
 605              	.LBE68:
 606              		.loc 1 187 0
 607 001c 1846     		mov	r0, r3
 608              	.LVL55:
 609 001e 5DF8044B 		ldr	r4, [sp], #4
 610 0022 7047     		bx	lr
 611              	.LVL56:
 612              	.L62:
 613              	.LBB69:
 614              	.LBB67:
 615              		.loc 1 169 0
 616 0024 0023     		movs	r3, #0
 617              	.LVL57:
 618              	.LBE67:
 619              	.LBE69:
 620              		.loc 1 187 0
 621 0026 1846     		mov	r0, r3
 622              	.LVL58:
 623 0028 5DF8044B 		ldr	r4, [sp], #4
 624 002c 7047     		bx	lr
 625              	.L64:
 626 002e 00BF     		.align	2
ARM GAS  /tmp/cc2fUkl8.s 			page 12


 627              	.L63:
 628 0030 00000000 		.word	vtlist
 629 0034 00000000 		.word	.LANCHOR3
 630 0038 00000000 		.word	.LANCHOR4
 631 003c 00000000 		.word	.LANCHOR5
 632              		.cfi_endproc
 633              	.LFE127:
 634              		.size	_test_assert_time_window, .-_test_assert_time_window
 635              		.section	.text.test_terminate_threads,"ax",%progbits
 636              		.align	2
 637              		.p2align 4,,15
 638              		.global	test_terminate_threads
 639              		.thumb
 640              		.thumb_func
 641              		.type	test_terminate_threads, %function
 642              	test_terminate_threads:
 643              	.LFB128:
 644              		.loc 1 196 0
 645              		.cfi_startproc
 646              		@ args = 0, pretend = 0, frame = 0
 647              		@ frame_needed = 0, uses_anonymous_args = 0
 648              	.LVL59:
 649 0000 38B5     		push	{r3, r4, r5, lr}
 650              		.cfi_def_cfa_offset 16
 651              		.cfi_offset 3, -16
 652              		.cfi_offset 4, -12
 653              		.cfi_offset 5, -8
 654              		.cfi_offset 14, -4
 655 0002 064C     		ldr	r4, .L72
 656 0004 04F11405 		add	r5, r4, #20
 657              	.LVL60:
 658              	.L68:
 659              		.loc 1 200 0
 660 0008 54F8043F 		ldr	r3, [r4, #4]!
 661              		.loc 1 201 0
 662 000c 1846     		mov	r0, r3
 663              		.loc 1 200 0
 664 000e 0BB1     		cbz	r3, .L66
 665              		.loc 1 201 0
 666 0010 FFF7FEFF 		bl	chThdTerminate
 667              	.LVL61:
 668              	.L66:
 669              		.loc 1 199 0
 670 0014 AC42     		cmp	r4, r5
 671 0016 F7D1     		bne	.L68
 672              		.loc 1 202 0
 673 0018 38BD     		pop	{r3, r4, r5, pc}
 674              	.L73:
 675 001a 00BF     		.align	2
 676              	.L72:
 677 001c FCFFFFFF 		.word	.LANCHOR7-4
 678              		.cfi_endproc
 679              	.LFE128:
 680              		.size	test_terminate_threads, .-test_terminate_threads
 681              		.section	.text.test_wait_threads,"ax",%progbits
 682              		.align	2
 683              		.p2align 4,,15
ARM GAS  /tmp/cc2fUkl8.s 			page 13


 684              		.global	test_wait_threads
 685              		.thumb
 686              		.thumb_func
 687              		.type	test_wait_threads, %function
 688              	test_wait_threads:
 689              	.LFB129:
 690              		.loc 1 207 0
 691              		.cfi_startproc
 692              		@ args = 0, pretend = 0, frame = 0
 693              		@ frame_needed = 0, uses_anonymous_args = 0
 694              	.LVL62:
 695 0000 70B5     		push	{r4, r5, r6, lr}
 696              		.cfi_def_cfa_offset 16
 697              		.cfi_offset 4, -16
 698              		.cfi_offset 5, -12
 699              		.cfi_offset 6, -8
 700              		.cfi_offset 14, -4
 701 0002 074C     		ldr	r4, .L81
 702              		.loc 1 213 0
 703 0004 0026     		movs	r6, #0
 704 0006 04F11405 		add	r5, r4, #20
 705              	.LVL63:
 706              	.L77:
 707              		.loc 1 211 0
 708 000a 54F8043B 		ldr	r3, [r4], #4
 709              		.loc 1 212 0
 710 000e 1846     		mov	r0, r3
 711              		.loc 1 211 0
 712 0010 1BB1     		cbz	r3, .L75
 713              		.loc 1 212 0
 714 0012 FFF7FEFF 		bl	chThdWait
 715              	.LVL64:
 716              		.loc 1 213 0
 717 0016 44F8046C 		str	r6, [r4, #-4]
 718              	.L75:
 719              		.loc 1 210 0
 720 001a AC42     		cmp	r4, r5
 721 001c F5D1     		bne	.L77
 722              		.loc 1 215 0
 723 001e 70BD     		pop	{r4, r5, r6, pc}
 724              	.L82:
 725              		.align	2
 726              	.L81:
 727 0020 00000000 		.word	.LANCHOR7
 728              		.cfi_endproc
 729              	.LFE129:
 730              		.size	test_wait_threads, .-test_wait_threads
 731 0024 AFF30080 		.section	.text.test_cpu_pulse,"ax",%progbits
 731      AFF30080 
 731      AFF30080 
 732              		.align	2
 733              		.p2align 4,,15
 734              		.global	test_cpu_pulse
 735              		.thumb
 736              		.thumb_func
 737              		.type	test_cpu_pulse, %function
 738              	test_cpu_pulse:
ARM GAS  /tmp/cc2fUkl8.s 			page 14


 739              	.LFB130:
 740              		.loc 1 224 0
 741              		.cfi_startproc
 742              		@ args = 0, pretend = 0, frame = 0
 743              		@ frame_needed = 0, uses_anonymous_args = 0
 744              		@ link register save eliminated.
 745              	.LVL65:
 746              		.loc 1 227 0
 747 0000 124A     		ldr	r2, .L94
 748              		.loc 1 228 0
 749 0002 134B     		ldr	r3, .L94+4
 750              		.loc 1 224 0
 751 0004 30B4     		push	{r4, r5}
 752              		.cfi_def_cfa_offset 8
 753              		.cfi_offset 4, -8
 754              		.cfi_offset 5, -4
 755              		.loc 1 227 0
 756 0006 9469     		ldr	r4, [r2, #24]
 757              		.loc 1 228 0
 758 0008 4FF47A71 		mov	r1, #1000
 759 000c 01FB00F0 		mul	r0, r1, r0
 760              	.LVL66:
 761              		.loc 1 227 0
 762 0010 226A     		ldr	r2, [r4, #32]
 763              	.LVL67:
 764              		.loc 1 228 0
 765 0012 411E     		subs	r1, r0, #1
 766 0014 A3FB0151 		umull	r5, r1, r3, r1
 767 0018 501C     		adds	r0, r2, #1
 768 001a 00EB9111 		add	r1, r0, r1, lsr #6
 769              	.LVL68:
 770              	.L89:
 771              		.loc 1 235 0
 772 001e 8A42     		cmp	r2, r1
 773              		.loc 1 230 0
 774 0020 236A     		ldr	r3, [r4, #32]
 775              	.LVL69:
 776              		.loc 1 235 0
 777 0022 0DD2     		bcs	.L84
 778              		.loc 1 235 0 is_stmt 0 discriminator 1
 779 0024 9A42     		cmp	r2, r3
 780 0026 04D9     		bls	.L92
 781 0028 0023     		movs	r3, #0
 782              	.LVL70:
 783              		.loc 1 236 0 is_stmt 1
 784 002a 002B     		cmp	r3, #0
 785 002c F7D1     		bne	.L89
 786              	.L93:
 787              		.loc 1 237 0
 788 002e 30BC     		pop	{r4, r5}
 789 0030 7047     		bx	lr
 790              	.LVL71:
 791              	.L92:
 792              		.loc 1 236 0 discriminator 2
 793 0032 9942     		cmp	r1, r3
 794 0034 94BF     		ite	ls
 795 0036 0023     		movls	r3, #0
ARM GAS  /tmp/cc2fUkl8.s 			page 15


 796              	.LVL72:
 797 0038 0123     		movhi	r3, #1
 798 003a 002B     		cmp	r3, #0
 799 003c EFD1     		bne	.L89
 800 003e F6E7     		b	.L93
 801              	.LVL73:
 802              	.L84:
 803              		.loc 1 236 0 is_stmt 0
 804 0040 9A42     		cmp	r2, r3
 805 0042 F6D8     		bhi	.L92
 806 0044 0123     		movs	r3, #1
 807              	.LVL74:
 808 0046 002B     		cmp	r3, #0
 809 0048 E9D1     		bne	.L89
 810 004a F0E7     		b	.L93
 811              	.L95:
 812              		.align	2
 813              	.L94:
 814 004c 00000000 		.word	rlist
 815 0050 D34D6210 		.word	274877907
 816              		.cfi_endproc
 817              	.LFE130:
 818              		.size	test_cpu_pulse, .-test_cpu_pulse
 819 0054 AFF30080 		.section	.text.test_wait_tick,"ax",%progbits
 819      AFF30080 
 819      AFF30080 
 820              		.align	2
 821              		.p2align 4,,15
 822              		.global	test_wait_tick
 823              		.thumb
 824              		.thumb_func
 825              		.type	test_wait_tick, %function
 826              	test_wait_tick:
 827              	.LFB131:
 828              		.loc 1 245 0 is_stmt 1
 829              		.cfi_startproc
 830              		@ args = 0, pretend = 0, frame = 0
 831              		@ frame_needed = 0, uses_anonymous_args = 0
 832 0000 08B5     		push	{r3, lr}
 833              		.cfi_def_cfa_offset 8
 834              		.cfi_offset 3, -8
 835              		.cfi_offset 14, -4
 836              		.loc 1 247 0
 837 0002 0120     		movs	r0, #1
 838 0004 FFF7FEFF 		bl	chThdSleep
 839              	.LVL75:
 840              		.loc 1 248 0
 841 0008 014B     		ldr	r3, .L97
 842 000a D868     		ldr	r0, [r3, #12]
 843              		.loc 1 249 0
 844 000c 08BD     		pop	{r3, pc}
 845              	.L98:
 846 000e 00BF     		.align	2
 847              	.L97:
 848 0010 00000000 		.word	vtlist
 849              		.cfi_endproc
 850              	.LFE131:
ARM GAS  /tmp/cc2fUkl8.s 			page 16


 851              		.size	test_wait_tick, .-test_wait_tick
 852 0014 AFF30080 		.section	.text.test_start_timer,"ax",%progbits
 852      AFF30080 
 852      AFF30080 
 853              		.align	2
 854              		.p2align 4,,15
 855              		.global	test_start_timer
 856              		.thumb
 857              		.thumb_func
 858              		.type	test_start_timer, %function
 859              	test_start_timer:
 860              	.LFB133:
 861              		.loc 1 272 0
 862              		.cfi_startproc
 863              		@ args = 0, pretend = 0, frame = 0
 864              		@ frame_needed = 0, uses_anonymous_args = 0
 865              	.LVL76:
 866 0000 38B5     		push	{r3, r4, r5, lr}
 867              		.cfi_def_cfa_offset 16
 868              		.cfi_offset 3, -16
 869              		.cfi_offset 4, -12
 870              		.cfi_offset 5, -8
 871              		.cfi_offset 14, -4
 872              		.loc 1 275 0
 873 0002 0C4B     		ldr	r3, .L100
 874 0004 0024     		movs	r4, #0
 875              	.LVL77:
 876 0006 1C70     		strb	r4, [r3]
 877              	.LBB70:
 878              		.loc 1 276 0
 879 0008 2023     		movs	r3, #32
 880              	@ 276 "../../test/test.c" 1
 881 000a 83F31188 		msr     BASEPRI, r3
 882              	@ 0 "" 2
 883              		.thumb
 884              	.LBE70:
 885              		.loc 1 274 0
 886 000e 4FF47A71 		mov	r1, #1000
 887 0012 01FB00F1 		mul	r1, r1, r0
 888 0016 084B     		ldr	r3, .L100+4
 889              		.loc 1 276 0
 890 0018 0848     		ldr	r0, .L100+8
 891              	.LVL78:
 892 001a 094A     		ldr	r2, .L100+12
 893              		.loc 1 274 0
 894 001c 0139     		subs	r1, r1, #1
 895 001e A3FB0151 		umull	r5, r1, r3, r1
 896 0022 8909     		lsrs	r1, r1, #6
 897              		.loc 1 276 0
 898 0024 2346     		mov	r3, r4
 899 0026 0131     		adds	r1, r1, #1
 900 0028 FFF7FEFF 		bl	chVTSetI
 901              	.LVL79:
 902              	.LBB71:
 903 002c 2346     		mov	r3, r4
 904              	@ 276 "../../test/test.c" 1
 905 002e 83F31188 		msr     BASEPRI, r3
ARM GAS  /tmp/cc2fUkl8.s 			page 17


 906              	@ 0 "" 2
 907              		.thumb
 908 0032 38BD     		pop	{r3, r4, r5, pc}
 909              	.L101:
 910              		.align	2
 911              	.L100:
 912 0034 00000000 		.word	.LANCHOR0
 913 0038 D34D6210 		.word	274877907
 914 003c 00000000 		.word	.LANCHOR8
 915 0040 00000000 		.word	tmr
 916              	.LBE71:
 917              		.cfi_endproc
 918              	.LFE133:
 919              		.size	test_start_timer, .-test_start_timer
 920 0044 AFF30080 		.section	.text.TestThread,"ax",%progbits
 920      AFF30080 
 920      AFF30080 
 921              		.align	2
 922              		.p2align 4,,15
 923              		.global	TestThread
 924              		.thumb
 925              		.thumb_func
 926              		.type	TestThread, %function
 927              	TestThread:
 928              	.LFB136:
 929              		.loc 1 314 0
 930              		.cfi_startproc
 931              		@ args = 0, pretend = 0, frame = 16
 932              		@ frame_needed = 0, uses_anonymous_args = 0
 933              	.LVL80:
 934 0000 2DE9F04F 		push	{r4, r5, r6, r7, r8, r9, r10, fp, lr}
 935              		.cfi_def_cfa_offset 36
 936              		.cfi_offset 4, -36
 937              		.cfi_offset 5, -32
 938              		.cfi_offset 6, -28
 939              		.cfi_offset 7, -24
 940              		.cfi_offset 8, -20
 941              		.cfi_offset 9, -16
 942              		.cfi_offset 10, -12
 943              		.cfi_offset 11, -8
 944              		.cfi_offset 14, -4
 945              		.loc 1 317 0
 946 0004 9E4C     		ldr	r4, .L169
 947 0006 9F4D     		ldr	r5, .L169+4
 948 0008 2060     		str	r0, [r4]
 949              		.loc 1 314 0
 950 000a 85B0     		sub	sp, sp, #20
 951              		.cfi_def_cfa_offset 56
 952              		.loc 1 318 0
 953 000c 9E48     		ldr	r0, .L169+8
 954              	.LVL81:
 955 000e FFF7FEFF 		bl	test_println
 956              	.LVL82:
 957              		.loc 1 319 0
 958 0012 9E48     		ldr	r0, .L169+12
 959 0014 FFF7FEFF 		bl	test_println
 960              	.LVL83:
ARM GAS  /tmp/cc2fUkl8.s 			page 18


 961              		.loc 1 320 0
 962 0018 9D48     		ldr	r0, .L169+16
 963 001a FFF7FEFF 		bl	test_println
 964              	.LVL84:
 965              	.LBB108:
 966              	.LBB109:
 967              		.loc 1 112 0
 968 001e 2A21     		movs	r1, #42
 969              	.LVL85:
 970              	.L104:
 971              		.loc 1 113 0
 972 0020 2068     		ldr	r0, [r4]
 973              	.LVL86:
 974 0022 0368     		ldr	r3, [r0]
 975 0024 9B68     		ldr	r3, [r3, #8]
 976 0026 9847     		blx	r3
 977              	.LVL87:
 978              		.loc 1 112 0
 979 0028 15F8011F 		ldrb	r1, [r5, #1]!	@ zero_extendqisi2
 980              	.LVL88:
 981 002c 0029     		cmp	r1, #0
 982 002e F7D1     		bne	.L104
 983              	.LBE109:
 984              	.LBE108:
 985              		.loc 1 322 0
 986 0030 9848     		ldr	r0, .L169+20
 987 0032 994D     		ldr	r5, .L169+24
 988              	.LVL89:
 989 0034 FFF7FEFF 		bl	test_println
 990              	.LVL90:
 991              	.LBB110:
 992              	.LBB111:
 993              		.loc 1 112 0
 994 0038 2A21     		movs	r1, #42
 995              	.LVL91:
 996              	.L142:
 997              		.loc 1 113 0
 998 003a 2068     		ldr	r0, [r4]
 999              	.LVL92:
 1000 003c 0368     		ldr	r3, [r0]
 1001 003e 9B68     		ldr	r3, [r3, #8]
 1002 0040 9847     		blx	r3
 1003              	.LVL93:
 1004              		.loc 1 112 0
 1005 0042 15F8011F 		ldrb	r1, [r5, #1]!	@ zero_extendqisi2
 1006              	.LVL94:
 1007 0046 0029     		cmp	r1, #0
 1008 0048 F7D1     		bne	.L142
 1009              	.LBE111:
 1010              	.LBE110:
 1011              		.loc 1 324 0
 1012 004a 9448     		ldr	r0, .L169+28
 1013 004c 944D     		ldr	r5, .L169+32
 1014              	.LVL95:
 1015 004e FFF7FEFF 		bl	test_println
 1016              	.LVL96:
 1017              	.LBB112:
ARM GAS  /tmp/cc2fUkl8.s 			page 19


 1018              	.LBB113:
 1019              		.loc 1 112 0
 1020 0052 2A21     		movs	r1, #42
 1021              	.LVL97:
 1022              	.L143:
 1023              		.loc 1 113 0
 1024 0054 2068     		ldr	r0, [r4]
 1025              	.LVL98:
 1026 0056 0368     		ldr	r3, [r0]
 1027 0058 9B68     		ldr	r3, [r3, #8]
 1028 005a 9847     		blx	r3
 1029              	.LVL99:
 1030              		.loc 1 112 0
 1031 005c 15F8011F 		ldrb	r1, [r5, #1]!	@ zero_extendqisi2
 1032              	.LVL100:
 1033 0060 0029     		cmp	r1, #0
 1034 0062 F7D1     		bne	.L143
 1035              	.LBE113:
 1036              	.LBE112:
 1037              		.loc 1 327 0
 1038 0064 8F48     		ldr	r0, .L169+36
 1039 0066 904D     		ldr	r5, .L169+40
 1040              	.LVL101:
 1041 0068 FFF7FEFF 		bl	test_println
 1042              	.LVL102:
 1043              	.LBB114:
 1044              	.LBB115:
 1045              		.loc 1 112 0
 1046 006c 2A21     		movs	r1, #42
 1047              	.LVL103:
 1048              	.L144:
 1049              		.loc 1 113 0
 1050 006e 2068     		ldr	r0, [r4]
 1051              	.LVL104:
 1052 0070 0368     		ldr	r3, [r0]
 1053 0072 9B68     		ldr	r3, [r3, #8]
 1054 0074 9847     		blx	r3
 1055              	.LVL105:
 1056              		.loc 1 112 0
 1057 0076 15F8011F 		ldrb	r1, [r5, #1]!	@ zero_extendqisi2
 1058              	.LVL106:
 1059 007a 0029     		cmp	r1, #0
 1060 007c F7D1     		bne	.L144
 1061              	.LBE115:
 1062              	.LBE114:
 1063              		.loc 1 330 0
 1064 007e 8B48     		ldr	r0, .L169+44
 1065 0080 8B4D     		ldr	r5, .L169+48
 1066              	.LVL107:
 1067 0082 FFF7FEFF 		bl	test_println
 1068              	.LVL108:
 1069              	.LBB116:
 1070              	.LBB117:
 1071              		.loc 1 112 0
 1072 0086 2A21     		movs	r1, #42
 1073              	.LVL109:
 1074              	.L145:
ARM GAS  /tmp/cc2fUkl8.s 			page 20


 1075              		.loc 1 113 0
 1076 0088 2068     		ldr	r0, [r4]
 1077              	.LVL110:
 1078 008a 0368     		ldr	r3, [r0]
 1079 008c 9B68     		ldr	r3, [r3, #8]
 1080 008e 9847     		blx	r3
 1081              	.LVL111:
 1082              		.loc 1 112 0
 1083 0090 15F8011F 		ldrb	r1, [r5, #1]!	@ zero_extendqisi2
 1084              	.LVL112:
 1085 0094 0029     		cmp	r1, #0
 1086 0096 F7D1     		bne	.L145
 1087              	.LBE117:
 1088              	.LBE116:
 1089              		.loc 1 333 0
 1090 0098 8648     		ldr	r0, .L169+52
 1091 009a 874D     		ldr	r5, .L169+56
 1092              	.LVL113:
 1093 009c FFF7FEFF 		bl	test_println
 1094              	.LVL114:
 1095              	.LBB118:
 1096              	.LBB119:
 1097              		.loc 1 112 0
 1098 00a0 2A21     		movs	r1, #42
 1099              	.LVL115:
 1100              	.L146:
 1101              		.loc 1 113 0
 1102 00a2 2068     		ldr	r0, [r4]
 1103              	.LVL116:
 1104 00a4 0368     		ldr	r3, [r0]
 1105 00a6 9B68     		ldr	r3, [r3, #8]
 1106 00a8 9847     		blx	r3
 1107              	.LVL117:
 1108              		.loc 1 112 0
 1109 00aa 15F8011F 		ldrb	r1, [r5, #1]!	@ zero_extendqisi2
 1110              	.LVL118:
 1111 00ae 0029     		cmp	r1, #0
 1112 00b0 F7D1     		bne	.L146
 1113              	.LBE119:
 1114              	.LBE118:
 1115              		.loc 1 337 0
 1116 00b2 8248     		ldr	r0, .L169+60
 1117 00b4 824D     		ldr	r5, .L169+64
 1118              	.LVL119:
 1119 00b6 FFF7FEFF 		bl	test_println
 1120              	.LVL120:
 1121              	.LBB120:
 1122              	.LBB121:
 1123              		.loc 1 112 0
 1124 00ba 2A21     		movs	r1, #42
 1125              	.LVL121:
 1126              	.L147:
 1127              		.loc 1 113 0
 1128 00bc 2068     		ldr	r0, [r4]
 1129              	.LVL122:
 1130 00be 0368     		ldr	r3, [r0]
 1131 00c0 9B68     		ldr	r3, [r3, #8]
ARM GAS  /tmp/cc2fUkl8.s 			page 21


 1132 00c2 9847     		blx	r3
 1133              	.LVL123:
 1134              		.loc 1 112 0
 1135 00c4 15F8011F 		ldrb	r1, [r5, #1]!	@ zero_extendqisi2
 1136              	.LVL124:
 1137 00c8 0029     		cmp	r1, #0
 1138 00ca F7D1     		bne	.L147
 1139              	.LBE121:
 1140              	.LBE120:
 1141              		.loc 1 341 0
 1142 00cc 7D48     		ldr	r0, .L169+68
 1143 00ce 7E4D     		ldr	r5, .L169+72
 1144              	.LVL125:
 1145 00d0 FFF7FEFF 		bl	test_println
 1146              	.LVL126:
 1147              	.LBB122:
 1148              	.LBB123:
 1149              		.loc 1 112 0
 1150 00d4 2A21     		movs	r1, #42
 1151              	.LVL127:
 1152              	.L148:
 1153              		.loc 1 113 0
 1154 00d6 2068     		ldr	r0, [r4]
 1155              	.LVL128:
 1156 00d8 0368     		ldr	r3, [r0]
 1157 00da 9B68     		ldr	r3, [r3, #8]
 1158 00dc 9847     		blx	r3
 1159              	.LVL129:
 1160              		.loc 1 112 0
 1161 00de 15F8011F 		ldrb	r1, [r5, #1]!	@ zero_extendqisi2
 1162              	.LVL130:
 1163 00e2 0029     		cmp	r1, #0
 1164 00e4 F7D1     		bne	.L148
 1165 00e6 794A     		ldr	r2, .L169+76
 1166              	.LBE123:
 1167              	.LBE122:
 1168              		.loc 1 345 0
 1169 00e8 7948     		ldr	r0, .L169+80
 1170 00ea 0191     		str	r1, [sp, #4]
 1171 00ec 0392     		str	r2, [sp, #12]
 1172 00ee FFF7FEFF 		bl	test_println
 1173              	.LVL131:
 1174              		.loc 1 347 0
 1175 00f2 6548     		ldr	r0, .L169+8
 1176              	.LBB124:
 1177              	.LBB125:
 1178              		.loc 1 113 0
 1179 00f4 DFF888B1 		ldr	fp, .L169
 1180              	.LBE125:
 1181              	.LBE124:
 1182              		.loc 1 349 0
 1183 00f8 764F     		ldr	r7, .L169+84
 1184              		.loc 1 347 0
 1185 00fa FFF7FEFF 		bl	test_println
 1186              	.LVL132:
 1187              		.loc 1 349 0
 1188 00fe 764B     		ldr	r3, .L169+88
ARM GAS  /tmp/cc2fUkl8.s 			page 22


 1189              		.loc 1 350 0
 1190 0100 0199     		ldr	r1, [sp, #4]
 1191 0102 0291     		str	r1, [sp, #8]
 1192              		.loc 1 349 0
 1193 0104 1970     		strb	r1, [r3]
 1194              	.LVL133:
 1195              	.L149:
 1196 0106 029B     		ldr	r3, [sp, #8]
 1197 0108 0133     		adds	r3, r3, #1
 1198 010a 0293     		str	r3, [sp, #8]
 1199              	.LVL134:
 1200              	.LBB127:
 1201              	.LBB128:
 1202              		.loc 1 112 0 discriminator 1
 1203 010c 4FF00008 		mov	r8, #0
 1204              	.LVL135:
 1205              	.L138:
 1206              	.LBE128:
 1207              	.LBE127:
 1208              		.loc 1 353 0 discriminator 1
 1209 0110 57F8043B 		ldr	r3, [r7], #4
 1210 0114 002B     		cmp	r3, #0
 1211 0116 00F08680 		beq	.L167
 1212              	.L136:
 1213 011a 704D     		ldr	r5, .L169+92
 1214              		.loc 1 354 0
 1215 011c FFF7FEFF 		bl	print_line
 1216              	.LVL136:
 1217              	.LBB130:
 1218              	.LBB126:
 1219              		.loc 1 112 0
 1220 0120 2D21     		movs	r1, #45
 1221              	.LVL137:
 1222              	.L120:
 1223              		.loc 1 113 0
 1224 0122 2068     		ldr	r0, [r4]
 1225              	.LVL138:
 1226 0124 0368     		ldr	r3, [r0]
 1227 0126 9B68     		ldr	r3, [r3, #8]
 1228 0128 9847     		blx	r3
 1229              	.LVL139:
 1230              		.loc 1 112 0
 1231 012a 15F8011F 		ldrb	r1, [r5, #1]!	@ zero_extendqisi2
 1232              	.LVL140:
 1233 012e 0029     		cmp	r1, #0
 1234 0130 F7D1     		bne	.L120
 1235              	.LBE126:
 1236              	.LBE130:
 1237              		.loc 1 356 0
 1238 0132 0298     		ldr	r0, [sp, #8]
 1239 0134 6A4D     		ldr	r5, .L169+96
 1240              	.LVL141:
 1241 0136 FFF7FEFF 		bl	test_printn
 1242              	.LVL142:
 1243              	.LBB131:
 1244              	.LBB132:
 1245              		.loc 1 113 0
ARM GAS  /tmp/cc2fUkl8.s 			page 23


 1246 013a DBF80000 		ldr	r0, [fp]
 1247              	.LVL143:
 1248 013e 0368     		ldr	r3, [r0]
 1249 0140 2E21     		movs	r1, #46
 1250 0142 9B68     		ldr	r3, [r3, #8]
 1251              	.LBE132:
 1252              	.LBE131:
 1253              		.loc 1 358 0
 1254 0144 08F10108 		add	r8, r8, #1
 1255              	.LVL144:
 1256              	.LBB134:
 1257              	.LBB133:
 1258              		.loc 1 113 0
 1259 0148 9847     		blx	r3
 1260              	.LVL145:
 1261              	.LBE133:
 1262              	.LBE134:
 1263              		.loc 1 358 0
 1264 014a 4046     		mov	r0, r8
 1265 014c FFF7FEFF 		bl	test_printn
 1266              	.LVL146:
 1267              	.LBB135:
 1268              	.LBB136:
 1269              		.loc 1 112 0
 1270 0150 2021     		movs	r1, #32
 1271              	.LVL147:
 1272              	.L150:
 1273              		.loc 1 113 0
 1274 0152 2068     		ldr	r0, [r4]
 1275              	.LVL148:
 1276 0154 0368     		ldr	r3, [r0]
 1277 0156 9B68     		ldr	r3, [r3, #8]
 1278 0158 9847     		blx	r3
 1279              	.LVL149:
 1280              		.loc 1 112 0
 1281 015a 15F8011F 		ldrb	r1, [r5, #1]!	@ zero_extendqisi2
 1282              	.LVL150:
 1283 015e 0029     		cmp	r1, #0
 1284 0160 F7D1     		bne	.L150
 1285              	.LBE136:
 1286              	.LBE135:
 1287              		.loc 1 360 0
 1288 0162 57F8043C 		ldr	r3, [r7, #-4]
 1289 0166 1D68     		ldr	r5, [r3]
 1290              	.LVL151:
 1291              	.LBB137:
 1292              	.LBB138:
 1293              		.loc 1 112 0
 1294 0168 2978     		ldrb	r1, [r5]	@ zero_extendqisi2
 1295 016a 39B1     		cbz	r1, .L125
 1296              	.LVL152:
 1297              	.L126:
 1298              		.loc 1 113 0
 1299 016c 2068     		ldr	r0, [r4]
 1300              	.LVL153:
 1301 016e 0368     		ldr	r3, [r0]
 1302 0170 9B68     		ldr	r3, [r3, #8]
ARM GAS  /tmp/cc2fUkl8.s 			page 24


 1303 0172 9847     		blx	r3
 1304              	.LVL154:
 1305              		.loc 1 112 0
 1306 0174 15F8011F 		ldrb	r1, [r5, #1]!	@ zero_extendqisi2
 1307              	.LVL155:
 1308 0178 0029     		cmp	r1, #0
 1309 017a F7D1     		bne	.L126
 1310              	.LVL156:
 1311              	.L125:
 1312              	.LBE138:
 1313              	.LBE137:
 1314              		.loc 1 361 0
 1315 017c 5948     		ldr	r0, .L169+100
 1316              	.LBB139:
 1317              	.LBB140:
 1318              		.loc 1 287 0
 1319 017e 5A4D     		ldr	r5, .L169+104
 1320              	.LBB141:
 1321              	.LBB142:
 1322              		.loc 1 132 0
 1323 0180 5A4E     		ldr	r6, .L169+108
 1324 0182 DFF89491 		ldr	r9, .L169+152
 1325              	.LBE142:
 1326              	.LBE141:
 1327              	.LBE140:
 1328              	.LBE139:
 1329              		.loc 1 361 0
 1330 0186 FFF7FEFF 		bl	test_println
 1331              	.LVL157:
 1332              		.loc 1 363 0
 1333 018a C820     		movs	r0, #200
 1334 018c FFF7FEFF 		bl	chThdSleep
 1335              	.LVL158:
 1336              	.LBB147:
 1337              	.LBB145:
 1338              		.loc 1 289 0
 1339 0190 574A     		ldr	r2, .L169+112
 1340              	.LBE145:
 1341              	.LBE147:
 1342              		.loc 1 365 0
 1343 0192 57F804AC 		ldr	r10, [r7, #-4]
 1344              	.LVL159:
 1345              	.LBB148:
 1346              	.LBB146:
 1347              	.LBB144:
 1348              	.LBB143:
 1349              		.loc 1 132 0
 1350 0196 C6F80090 		str	r9, [r6]
 1351              	.LBE143:
 1352              	.LBE144:
 1353              		.loc 1 287 0
 1354 019a 0023     		movs	r3, #0
 1355              		.loc 1 289 0
 1356 019c 1360     		str	r3, [r2]
 1357 019e 5360     		str	r3, [r2, #4]
 1358 01a0 9360     		str	r3, [r2, #8]
 1359 01a2 D360     		str	r3, [r2, #12]
ARM GAS  /tmp/cc2fUkl8.s 			page 25


 1360 01a4 1361     		str	r3, [r2, #16]
 1361              		.loc 1 291 0
 1362 01a6 DAF80420 		ldr	r2, [r10, #4]
 1363              		.loc 1 287 0
 1364 01aa 2B70     		strb	r3, [r5]
 1365              	.LVL160:
 1366              		.loc 1 291 0
 1367 01ac 02B1     		cbz	r2, .L124
 1368              		.loc 1 292 0
 1369 01ae 9047     		blx	r2
 1370              	.LVL161:
 1371              	.L124:
 1372              		.loc 1 293 0
 1373 01b0 DAF80C30 		ldr	r3, [r10, #12]
 1374 01b4 9847     		blx	r3
 1375              	.LVL162:
 1376              		.loc 1 294 0
 1377 01b6 DAF80830 		ldr	r3, [r10, #8]
 1378 01ba 03B1     		cbz	r3, .L127
 1379              		.loc 1 295 0
 1380 01bc 9847     		blx	r3
 1381              	.LVL163:
 1382              	.L127:
 1383              		.loc 1 297 0
 1384 01be FFF7FEFF 		bl	test_wait_threads
 1385              	.LVL164:
 1386              	.LBE146:
 1387              	.LBE148:
 1388              		.loc 1 366 0
 1389 01c2 2B78     		ldrb	r3, [r5]	@ zero_extendqisi2
 1390 01c4 002B     		cmp	r3, #0
 1391 01c6 4FD0     		beq	.L128
 1392 01c8 4A4D     		ldr	r5, .L169+116
 1393              	.LBB149:
 1394              	.LBB150:
 1395              		.loc 1 112 0
 1396 01ca 2D21     		movs	r1, #45
 1397              	.L130:
 1398              	.LVL165:
 1399              		.loc 1 113 0
 1400 01cc 2068     		ldr	r0, [r4]
 1401              	.LVL166:
 1402 01ce 0368     		ldr	r3, [r0]
 1403 01d0 9B68     		ldr	r3, [r3, #8]
 1404 01d2 9847     		blx	r3
 1405              	.LVL167:
 1406              		.loc 1 112 0
 1407 01d4 15F8011F 		ldrb	r1, [r5, #1]!	@ zero_extendqisi2
 1408              	.LVL168:
 1409 01d8 0029     		cmp	r1, #0
 1410 01da F7D1     		bne	.L130
 1411              	.LBE150:
 1412              	.LBE149:
 1413              		.loc 1 368 0
 1414 01dc 464B     		ldr	r3, .L169+120
 1415 01de 474D     		ldr	r5, .L169+124
 1416              	.LVL169:
ARM GAS  /tmp/cc2fUkl8.s 			page 26


 1417 01e0 1868     		ldr	r0, [r3]
 1418 01e2 FFF7FEFF 		bl	test_printn
 1419              	.LVL170:
 1420              	.LBB151:
 1421              	.LBB129:
 1422              		.loc 1 112 0
 1423 01e6 2021     		movs	r1, #32
 1424              	.LVL171:
 1425              	.L151:
 1426              		.loc 1 113 0
 1427 01e8 2068     		ldr	r0, [r4]
 1428              	.LVL172:
 1429 01ea 0368     		ldr	r3, [r0]
 1430 01ec 9B68     		ldr	r3, [r3, #8]
 1431 01ee 9847     		blx	r3
 1432              	.LVL173:
 1433              		.loc 1 112 0
 1434 01f0 15F8011F 		ldrb	r1, [r5, #1]!	@ zero_extendqisi2
 1435              	.LVL174:
 1436 01f4 0029     		cmp	r1, #0
 1437 01f6 F7D1     		bne	.L151
 1438              	.LVL175:
 1439              	.LBE129:
 1440              	.LBE151:
 1441              	.LBB152:
 1442              	.LBB153:
 1443              		.loc 1 138 0
 1444 01f8 3368     		ldr	r3, [r6]
 1445 01fa 4B45     		cmp	r3, r9
 1446 01fc 0BD9     		bls	.L134
 1447 01fe 404D     		ldr	r5, .L169+128
 1448              	.LVL176:
 1449              	.L135:
 1450              		.loc 1 139 0
 1451 0200 2068     		ldr	r0, [r4]
 1452 0202 15F8011C 		ldrb	r1, [r5, #-1]	@ zero_extendqisi2
 1453 0206 0368     		ldr	r3, [r0]
 1454 0208 9B68     		ldr	r3, [r3, #8]
 1455 020a 9847     		blx	r3
 1456              	.LVL177:
 1457              		.loc 1 138 0
 1458 020c 3368     		ldr	r3, [r6]
 1459              	.LVL178:
 1460 020e 9D42     		cmp	r5, r3
 1461 0210 05F10105 		add	r5, r5, #1
 1462              	.LVL179:
 1463 0214 F4D3     		bcc	.L135
 1464              	.LVL180:
 1465              	.L134:
 1466              	.LBE153:
 1467              	.LBE152:
 1468              		.loc 1 371 0
 1469 0216 3B48     		ldr	r0, .L169+132
 1470 0218 FFF7FEFF 		bl	test_println
 1471              	.LVL181:
 1472              		.loc 1 353 0
 1473 021c 57F8043B 		ldr	r3, [r7], #4
ARM GAS  /tmp/cc2fUkl8.s 			page 27


 1474 0220 002B     		cmp	r3, #0
 1475 0222 7FF47AAF 		bne	.L136
 1476              	.LVL182:
 1477              	.L167:
 1478              		.loc 1 351 0
 1479 0226 039A     		ldr	r2, [sp, #12]
 1480 0228 52F8047F 		ldr	r7, [r2, #4]!
 1481 022c 0392     		str	r2, [sp, #12]
 1482 022e 002F     		cmp	r7, #0
 1483 0230 7FF469AF 		bne	.L149
 1484              		.loc 1 379 0
 1485 0234 FFF7FEFF 		bl	print_line
 1486              	.LVL183:
 1487 0238 334D     		ldr	r5, .L169+136
 1488              		.loc 1 380 0
 1489 023a 1348     		ldr	r0, .L169+8
 1490 023c FFF7FEFF 		bl	test_println
 1491              	.LVL184:
 1492              	.LBB154:
 1493              	.LBB155:
 1494              		.loc 1 112 0
 1495 0240 4621     		movs	r1, #70
 1496              	.LVL185:
 1497              	.L152:
 1498              		.loc 1 113 0
 1499 0242 2068     		ldr	r0, [r4]
 1500              	.LVL186:
 1501 0244 0368     		ldr	r3, [r0]
 1502 0246 9B68     		ldr	r3, [r3, #8]
 1503 0248 9847     		blx	r3
 1504              	.LVL187:
 1505              		.loc 1 112 0
 1506 024a 15F8011F 		ldrb	r1, [r5, #1]!	@ zero_extendqisi2
 1507              	.LVL188:
 1508 024e 0029     		cmp	r1, #0
 1509 0250 F7D1     		bne	.L152
 1510              	.LBE155:
 1511              	.LBE154:
 1512              		.loc 1 382 0
 1513 0252 214A     		ldr	r2, .L169+88
 1514 0254 1378     		ldrb	r3, [r2]	@ zero_extendqisi2
 1515 0256 5BB9     		cbnz	r3, .L168
 1516              		.loc 1 385 0
 1517 0258 2C48     		ldr	r0, .L169+140
 1518 025a FFF7FEFF 		bl	test_println
 1519              	.LVL189:
 1520              		.loc 1 387 0
 1521 025e 1E4B     		ldr	r3, .L169+88
 1522 0260 1878     		ldrb	r0, [r3]	@ zero_extendqisi2
 1523              		.loc 1 388 0
 1524 0262 05B0     		add	sp, sp, #20
 1525              		@ sp needed
 1526 0264 BDE8F08F 		pop	{r4, r5, r6, r7, r8, r9, r10, fp, pc}
 1527              	.LVL190:
 1528              	.L128:
 1529              		.loc 1 374 0
 1530 0268 2948     		ldr	r0, .L169+144
ARM GAS  /tmp/cc2fUkl8.s 			page 28


 1531 026a FFF7FEFF 		bl	test_println
 1532              	.LVL191:
 1533 026e 4FE7     		b	.L138
 1534              	.LVL192:
 1535              	.L168:
 1536              		.loc 1 383 0
 1537 0270 2848     		ldr	r0, .L169+148
 1538 0272 FFF7FEFF 		bl	test_println
 1539              	.LVL193:
 1540              		.loc 1 387 0
 1541 0276 184B     		ldr	r3, .L169+88
 1542 0278 1878     		ldrb	r0, [r3]	@ zero_extendqisi2
 1543              		.loc 1 388 0
 1544 027a 05B0     		add	sp, sp, #20
 1545              		@ sp needed
 1546 027c BDE8F08F 		pop	{r4, r5, r6, r7, r8, r9, r10, fp, pc}
 1547              	.LVL194:
 1548              	.L170:
 1549              		.align	2
 1550              	.L169:
 1551 0280 00000000 		.word	.LANCHOR1
 1552 0284 28000000 		.word	.LC4
 1553 0288 04000000 		.word	.LC1
 1554 028c 08000000 		.word	.LC2
 1555 0290 24000000 		.word	.LC3
 1556 0294 90000000 		.word	.LC12
 1557 0298 98000000 		.word	.LC13
 1558 029c AC000000 		.word	.LC14
 1559 02a0 C4000000 		.word	.LC15
 1560 02a4 D8000000 		.word	.LC16
 1561 02a8 20010000 		.word	.LC17
 1562 02ac 34010000 		.word	.LC18
 1563 02b0 40010000 		.word	.LC19
 1564 02b4 54010000 		.word	.LC20
 1565 02b8 60010000 		.word	.LC21
 1566 02bc 74010000 		.word	.LC22
 1567 02c0 8C010000 		.word	.LC23
 1568 02c4 A0010000 		.word	.LC24
 1569 02c8 D4010000 		.word	.LC25
 1570 02cc 00000000 		.word	.LANCHOR9
 1571 02d0 E8010000 		.word	.LC26
 1572 02d4 00000000 		.word	patternthd
 1573 02d8 00000000 		.word	.LANCHOR4
 1574 02dc 3C000000 		.word	.LC5
 1575 02e0 10020000 		.word	.LC27
 1576 02e4 4C000000 		.word	.LC6
 1577 02e8 00000000 		.word	.LANCHOR3
 1578 02ec 00000000 		.word	.LANCHOR2
 1579 02f0 00000000 		.word	.LANCHOR7
 1580 02f4 50000000 		.word	.LC7
 1581 02f8 00000000 		.word	.LANCHOR5
 1582 02fc 14020000 		.word	.LC28
 1583 0300 01000000 		.word	.LANCHOR6+1
 1584 0304 68000000 		.word	.LC8
 1585 0308 18020000 		.word	.LC29
 1586 030c 88000000 		.word	.LC11
 1587 0310 6C000000 		.word	.LC9
ARM GAS  /tmp/cc2fUkl8.s 			page 29


 1588 0314 80000000 		.word	.LC10
 1589 0318 00000000 		.word	.LANCHOR6
 1590              		.cfi_endproc
 1591              	.LFE136:
 1592              		.size	TestThread, .-TestThread
 1593              		.global	test_timer_done
 1594              		.global	wa
 1595              		.global	threads
 1596              		.global	test
 1597 031c AFF30080 		.section	.bss.test,"aw",%nobits
 1598              		.align	3
 1599              		.type	test, %object
 1600              		.size	test, 1680
 1601              	test:
 1602 0000 00000000 		.space	1680
 1602      00000000 
 1602      00000000 
 1602      00000000 
 1602      00000000 
 1603              		.section	.bss.failpoint,"aw",%nobits
 1604              		.align	2
 1605              		.set	.LANCHOR5,. + 0
 1606              		.type	failpoint, %object
 1607              		.size	failpoint, 4
 1608              	failpoint:
 1609 0000 00000000 		.space	4
 1610              		.section	.bss.local_fail,"aw",%nobits
 1611              		.set	.LANCHOR3,. + 0
 1612              		.type	local_fail, %object
 1613              		.size	local_fail, 1
 1614              	local_fail:
 1615 0000 00       		.space	1
 1616              		.section	.bss.test_timer_done,"aw",%nobits
 1617              		.set	.LANCHOR0,. + 0
 1618              		.type	test_timer_done, %object
 1619              		.size	test_timer_done, 1
 1620              	test_timer_done:
 1621 0000 00       		.space	1
 1622              		.section	.rodata.wa,"a",%progbits
 1623              		.align	2
 1624              		.type	wa, %object
 1625              		.size	wa, 20
 1626              	wa:
 1627 0000 00000000 		.word	test
 1628 0004 50010000 		.word	test+336
 1629 0008 A0020000 		.word	test+672
 1630 000c F0030000 		.word	test+1008
 1631 0010 40050000 		.word	test+1344
 1632              		.section	.bss.tokp,"aw",%nobits
 1633              		.align	2
 1634              		.set	.LANCHOR2,. + 0
 1635              		.type	tokp, %object
 1636              		.size	tokp, 4
 1637              	tokp:
 1638 0000 00000000 		.space	4
 1639              		.section	.bss.global_fail,"aw",%nobits
 1640              		.set	.LANCHOR4,. + 0
ARM GAS  /tmp/cc2fUkl8.s 			page 30


 1641              		.type	global_fail, %object
 1642              		.size	global_fail, 1
 1643              	global_fail:
 1644 0000 00       		.space	1
 1645              		.section	.rodata.str1.4,"aMS",%progbits,1
 1646              		.align	2
 1647              	.LC0:
 1648 0000 0D0A00   		.ascii	"\015\012\000"
 1649 0003 00       		.space	1
 1650              	.LC1:
 1651 0004 00       		.ascii	"\000"
 1652 0005 000000   		.space	3
 1653              	.LC2:
 1654 0008 2A2A2A20 		.ascii	"*** ChibiOS/RT test suite\000"
 1654      43686962 
 1654      694F532F 
 1654      52542074 
 1654      65737420 
 1655 0022 0000     		.space	2
 1656              	.LC3:
 1657 0024 2A2A2A00 		.ascii	"***\000"
 1658              	.LC4:
 1659 0028 2A2A2A20 		.ascii	"*** Kernel:       \000"
 1659      4B65726E 
 1659      656C3A20 
 1659      20202020 
 1659      202000
 1660 003b 00       		.space	1
 1661              	.LC5:
 1662 003c 2D2D2D20 		.ascii	"--- Test Case \000"
 1662      54657374 
 1662      20436173 
 1662      652000
 1663 004b 00       		.space	1
 1664              	.LC6:
 1665 004c 2900     		.ascii	")\000"
 1666 004e 0000     		.space	2
 1667              	.LC7:
 1668 0050 2D2D2D20 		.ascii	"--- Result: FAILURE (#\000"
 1668      52657375 
 1668      6C743A20 
 1668      4641494C 
 1668      55524520 
 1669 0067 00       		.space	1
 1670              	.LC8:
 1671 0068 5D2900   		.ascii	"])\000"
 1672 006b 00       		.space	1
 1673              	.LC9:
 1674 006c 2D2D2D20 		.ascii	"--- Result: SUCCESS\000"
 1674      52657375 
 1674      6C743A20 
 1674      53554343 
 1674      45535300 
 1675              	.LC10:
 1676 0080 4641494C 		.ascii	"FAILURE\000"
 1676      55524500 
 1677              	.LC11:
ARM GAS  /tmp/cc2fUkl8.s 			page 31


 1678 0088 53554343 		.ascii	"SUCCESS\000"
 1678      45535300 
 1679              	.LC12:
 1680 0090 322E362E 		.ascii	"2.6.5\000"
 1680      3500
 1681 0096 0000     		.space	2
 1682              	.LC13:
 1683 0098 2A2A2A20 		.ascii	"*** Compiled:     \000"
 1683      436F6D70 
 1683      696C6564 
 1683      3A202020 
 1683      202000
 1684 00ab 00       		.space	1
 1685              	.LC14:
 1686 00ac 4A756C20 		.ascii	"Jul 16 2014 - 18:28:38\000"
 1686      31362032 
 1686      30313420 
 1686      2D203138 
 1686      3A32383A 
 1687 00c3 00       		.space	1
 1688              	.LC15:
 1689 00c4 2A2A2A20 		.ascii	"*** Compiler:     \000"
 1689      436F6D70 
 1689      696C6572 
 1689      3A202020 
 1689      202000
 1690 00d7 00       		.space	1
 1691              	.LC16:
 1692 00d8 47434320 		.ascii	"GCC 4.8.4 20140526 (release) [ARM/embedded-4_8-bran"
 1692      342E382E 
 1692      34203230 
 1692      31343035 
 1692      32362028 
 1693 010b 63682072 		.ascii	"ch revision 211358]\000"
 1693      65766973 
 1693      696F6E20 
 1693      32313133 
 1693      35385D00 
 1694 011f 00       		.space	1
 1695              	.LC17:
 1696 0120 2A2A2A20 		.ascii	"*** Architecture: \000"
 1696      41726368 
 1696      69746563 
 1696      74757265 
 1696      3A2000
 1697 0133 00       		.space	1
 1698              	.LC18:
 1699 0134 41524D76 		.ascii	"ARMv7-ME\000"
 1699      372D4D45 
 1699      00
 1700 013d 000000   		.space	3
 1701              	.LC19:
 1702 0140 2A2A2A20 		.ascii	"*** Core Variant: \000"
 1702      436F7265 
 1702      20566172 
 1702      69616E74 
 1702      3A2000
ARM GAS  /tmp/cc2fUkl8.s 			page 32


 1703 0153 00       		.space	1
 1704              	.LC20:
 1705 0154 436F7274 		.ascii	"Cortex-M4\000"
 1705      65782D4D 
 1705      3400
 1706 015e 0000     		.space	2
 1707              	.LC21:
 1708 0160 2A2A2A20 		.ascii	"*** Port Info:    \000"
 1708      506F7274 
 1708      20496E66 
 1708      6F3A2020 
 1708      202000
 1709 0173 00       		.space	1
 1710              	.LC22:
 1711 0174 41647661 		.ascii	"Advanced kernel mode\000"
 1711      6E636564 
 1711      206B6572 
 1711      6E656C20 
 1711      6D6F6465 
 1712 0189 000000   		.space	3
 1713              	.LC23:
 1714 018c 2A2A2A20 		.ascii	"*** Platform:     \000"
 1714      506C6174 
 1714      666F726D 
 1714      3A202020 
 1714      202000
 1715 019f 00       		.space	1
 1716              	.LC24:
 1717 01a0 53544D33 		.ascii	"STM32F407/F417 High Performance with DSP and FPU\000"
 1717      32463430 
 1717      372F4634 
 1717      31372048 
 1717      69676820 
 1718 01d1 000000   		.space	3
 1719              	.LC25:
 1720 01d4 2A2A2A20 		.ascii	"*** Test Board:   \000"
 1720      54657374 
 1720      20426F61 
 1720      72643A20 
 1720      202000
 1721 01e7 00       		.space	1
 1722              	.LC26:
 1723 01e8 53544D69 		.ascii	"STMicroelectronics STM32F4-Discovery\000"
 1723      63726F65 
 1723      6C656374 
 1723      726F6E69 
 1723      63732053 
 1724 020d 000000   		.space	3
 1725              	.LC27:
 1726 0210 202800   		.ascii	" (\000"
 1727 0213 00       		.space	1
 1728              	.LC28:
 1729 0214 205B00   		.ascii	" [\000"
 1730 0217 00       		.space	1
 1731              	.LC29:
 1732 0218 46696E61 		.ascii	"Final result: \000"
 1732      6C207265 
ARM GAS  /tmp/cc2fUkl8.s 			page 33


 1732      73756C74 
 1732      3A2000
 1733 0227 00       		.section	.bss.vt,"aw",%nobits
 1734              		.align	2
 1735              		.set	.LANCHOR8,. + 0
 1736              		.type	vt, %object
 1737              		.size	vt, 20
 1738              	vt:
 1739 0000 00000000 		.space	20
 1739      00000000 
 1739      00000000 
 1739      00000000 
 1739      00000000 
 1740              		.section	.bss.threads,"aw",%nobits
 1741              		.align	2
 1742              		.set	.LANCHOR7,. + 0
 1743              		.type	threads, %object
 1744              		.size	threads, 20
 1745              	threads:
 1746 0000 00000000 		.space	20
 1746      00000000 
 1746      00000000 
 1746      00000000 
 1746      00000000 
 1747              		.section	.rodata.patterns,"a",%progbits
 1748              		.align	2
 1749              		.set	.LANCHOR9,. + 0
 1750              		.type	patterns, %object
 1751              		.size	patterns, 48
 1752              	patterns:
 1753 0000 00000000 		.word	patternthd
 1754 0004 00000000 		.word	patternsem
 1755 0008 00000000 		.word	patternmtx
 1756 000c 00000000 		.word	patternmsg
 1757 0010 00000000 		.word	patternmbox
 1758 0014 00000000 		.word	patternevt
 1759 0018 00000000 		.word	patternheap
 1760 001c 00000000 		.word	patternpools
 1761 0020 00000000 		.word	patterndyn
 1762 0024 00000000 		.word	patternqueues
 1763 0028 00000000 		.word	patternbmk
 1764 002c 00000000 		.word	0
 1765              		.section	.bss.chp,"aw",%nobits
 1766              		.align	2
 1767              		.set	.LANCHOR1,. + 0
 1768              		.type	chp, %object
 1769              		.size	chp, 4
 1770              	chp:
 1771 0000 00000000 		.space	4
 1772              		.section	.bss.tokens_buffer,"aw",%nobits
 1773              		.align	2
 1774              		.set	.LANCHOR6,. + 0
 1775              		.type	tokens_buffer, %object
 1776              		.size	tokens_buffer, 16
 1777              	tokens_buffer:
 1778 0000 00000000 		.space	16
 1778      00000000 
ARM GAS  /tmp/cc2fUkl8.s 			page 34


 1778      00000000 
 1778      00000000 
 1779              		.text
 1780              	.Letext0:
 1781              		.file 2 "/opt/ARM/lib/gcc/arm-none-eabi/4.8.4/include/stddef.h"
 1782              		.file 3 "/opt/ARM/arm-none-eabi/include/machine/_default_types.h"
 1783              		.file 4 "/opt/ARM/arm-none-eabi/include/stdint.h"
 1784              		.file 5 "../../os/ports/GCC/ARMCMx/chtypes.h"
 1785              		.file 6 "../../os/kernel/include/chlists.h"
 1786              		.file 7 "../../os/kernel/include/chthreads.h"
 1787              		.file 8 "../../os/ports/GCC/ARMCMx/chcore_v7m.h"
 1788              		.file 9 "../../os/kernel/include/chvt.h"
 1789              		.file 10 "../../os/kernel/include/chschd.h"
 1790              		.file 11 "../../os/kernel/include/chmtx.h"
 1791              		.file 12 "../../os/kernel/include/chstreams.h"
 1792              		.file 13 "../../test/test.h"
 1793              		.file 14 "../../os/ports/common/ARMCMx/CMSIS/include/core_cm4.h"
 1794              		.file 15 "../../test/testthd.h"
 1795              		.file 16 "../../test/testsem.h"
 1796              		.file 17 "../../test/testmtx.h"
 1797              		.file 18 "../../test/testmsg.h"
 1798              		.file 19 "../../test/testmbox.h"
 1799              		.file 20 "../../test/testevt.h"
 1800              		.file 21 "../../test/testheap.h"
 1801              		.file 22 "../../test/testpools.h"
 1802              		.file 23 "../../test/testdyn.h"
 1803              		.file 24 "../../test/testqueues.h"
 1804              		.file 25 "../../test/testbmk.h"