ARM GAS  /tmp/cc80sxMg.s 			page 1


   1              		.syntax unified
   2              		.cpu cortex-m4
   3              		.fpu softvfp
   4              		.eabi_attribute 20, 1
   5              		.eabi_attribute 21, 1
   6              		.eabi_attribute 23, 3
   7              		.eabi_attribute 24, 1
   8              		.eabi_attribute 25, 1
   9              		.eabi_attribute 26, 1
  10              		.eabi_attribute 30, 2
  11              		.eabi_attribute 34, 1
  12              		.eabi_attribute 18, 4
  13              		.thumb
  14              		.file	"testbmk.c"
  15              		.text
  16              	.Ltext0:
  17              		.cfi_sections	.debug_frame
  18              		.section	.text.thread2,"ax",%progbits
  19              		.align	2
  20              		.p2align 4,,15
  21              		.thumb
  22              		.thumb_func
  23              		.type	thread2, %function
  24              	thread2:
  25              	.LFB11:
  26              		.file 1 "../../test/testbmk.c"
  27              		.loc 1 154 0
  28              		.cfi_startproc
  29              		@ args = 0, pretend = 0, frame = 0
  30              		@ frame_needed = 0, uses_anonymous_args = 0
  31              		@ link register save eliminated.
  32              	.LVL0:
  33              		.loc 1 157 0
  34 0000 7047     		bx	lr
  35              		.cfi_endproc
  36              	.LFE11:
  37              		.size	thread2, .-thread2
  38 0002 00BFAFF3 		.section	.text.tmo,"ax",%progbits
  38      0080AFF3 
  38      0080AFF3 
  38      0080
  39              		.align	2
  40              		.p2align 4,,15
  41              		.thumb
  42              		.thumb_func
  43              		.type	tmo, %function
  44              	tmo:
  45              	.LFB23:
  46              		.loc 1 502 0
  47              		.cfi_startproc
  48              		@ args = 0, pretend = 0, frame = 0
  49              		@ frame_needed = 0, uses_anonymous_args = 0
  50              		@ link register save eliminated.
  51              	.LVL1:
  52 0000 7047     		bx	lr
  53              		.cfi_endproc
  54              	.LFE23:
ARM GAS  /tmp/cc80sxMg.s 			page 2


  55              		.size	tmo, .-tmo
  56 0002 00BFAFF3 		.section	.text.bmk13_execute,"ax",%progbits
  56      0080AFF3 
  56      0080AFF3 
  56      0080
  57              		.align	2
  58              		.p2align 4,,15
  59              		.thumb
  60              		.thumb_func
  61              		.type	bmk13_execute, %function
  62              	bmk13_execute:
  63              	.LFB29:
  64              		.loc 1 637 0
  65              		.cfi_startproc
  66              		@ args = 0, pretend = 0, frame = 0
  67              		@ frame_needed = 0, uses_anonymous_args = 0
  68              		.loc 1 637 0
  69 0000 10B5     		push	{r4, lr}
  70              		.cfi_def_cfa_offset 8
  71              		.cfi_offset 4, -8
  72              		.cfi_offset 14, -4
  73              		.loc 1 639 0
  74 0002 2F48     		ldr	r0, .L4
  75              		.loc 1 645 0
  76 0004 2F4C     		ldr	r4, .L4+4
  77              		.loc 1 639 0
  78 0006 FFF7FEFF 		bl	test_print
  79              	.LVL2:
  80              		.loc 1 640 0
  81 000a 4FF4EA70 		mov	r0, #468
  82 000e FFF7FEFF 		bl	test_printn
  83              	.LVL3:
  84              		.loc 1 645 0
  85 0012 2046     		mov	r0, r4
  86 0014 FFF7FEFF 		bl	test_println
  87              	.LVL4:
  88              		.loc 1 646 0
  89 0018 2B48     		ldr	r0, .L4+8
  90 001a FFF7FEFF 		bl	test_print
  91              	.LVL5:
  92              		.loc 1 647 0
  93 001e 4820     		movs	r0, #72
  94 0020 FFF7FEFF 		bl	test_printn
  95              	.LVL6:
  96              		.loc 1 648 0
  97 0024 2046     		mov	r0, r4
  98 0026 FFF7FEFF 		bl	test_println
  99              	.LVL7:
 100              		.loc 1 649 0
 101 002a 2848     		ldr	r0, .L4+12
 102 002c FFF7FEFF 		bl	test_print
 103              	.LVL8:
 104              		.loc 1 650 0
 105 0030 1420     		movs	r0, #20
 106 0032 FFF7FEFF 		bl	test_printn
 107              	.LVL9:
 108              		.loc 1 651 0
ARM GAS  /tmp/cc80sxMg.s 			page 3


 109 0036 2046     		mov	r0, r4
 110 0038 FFF7FEFF 		bl	test_println
 111              	.LVL10:
 112              		.loc 1 653 0
 113 003c 2448     		ldr	r0, .L4+16
 114 003e FFF7FEFF 		bl	test_print
 115              	.LVL11:
 116              		.loc 1 654 0
 117 0042 0C20     		movs	r0, #12
 118 0044 FFF7FEFF 		bl	test_printn
 119              	.LVL12:
 120              		.loc 1 655 0
 121 0048 2046     		mov	r0, r4
 122 004a FFF7FEFF 		bl	test_println
 123              	.LVL13:
 124              		.loc 1 658 0
 125 004e 2148     		ldr	r0, .L4+20
 126 0050 FFF7FEFF 		bl	test_print
 127              	.LVL14:
 128              		.loc 1 659 0
 129 0054 0420     		movs	r0, #4
 130 0056 FFF7FEFF 		bl	test_printn
 131              	.LVL15:
 132              		.loc 1 660 0
 133 005a 2046     		mov	r0, r4
 134 005c FFF7FEFF 		bl	test_println
 135              	.LVL16:
 136              		.loc 1 661 0
 137 0060 1D48     		ldr	r0, .L4+24
 138 0062 FFF7FEFF 		bl	test_print
 139              	.LVL17:
 140              		.loc 1 662 0
 141 0066 1020     		movs	r0, #16
 142 0068 FFF7FEFF 		bl	test_printn
 143              	.LVL18:
 144              		.loc 1 663 0
 145 006c 2046     		mov	r0, r4
 146 006e FFF7FEFF 		bl	test_println
 147              	.LVL19:
 148              		.loc 1 666 0
 149 0072 1A48     		ldr	r0, .L4+28
 150 0074 FFF7FEFF 		bl	test_print
 151              	.LVL20:
 152              		.loc 1 667 0
 153 0078 1020     		movs	r0, #16
 154 007a FFF7FEFF 		bl	test_printn
 155              	.LVL21:
 156              		.loc 1 668 0
 157 007e 2046     		mov	r0, r4
 158 0080 FFF7FEFF 		bl	test_println
 159              	.LVL22:
 160              		.loc 1 671 0
 161 0084 1648     		ldr	r0, .L4+32
 162 0086 FFF7FEFF 		bl	test_print
 163              	.LVL23:
 164              		.loc 1 672 0
 165 008a 0820     		movs	r0, #8
ARM GAS  /tmp/cc80sxMg.s 			page 4


 166 008c FFF7FEFF 		bl	test_printn
 167              	.LVL24:
 168              		.loc 1 673 0
 169 0090 2046     		mov	r0, r4
 170 0092 FFF7FEFF 		bl	test_println
 171              	.LVL25:
 172              		.loc 1 676 0
 173 0096 1348     		ldr	r0, .L4+36
 174 0098 FFF7FEFF 		bl	test_print
 175              	.LVL26:
 176              		.loc 1 677 0
 177 009c 2420     		movs	r0, #36
 178 009e FFF7FEFF 		bl	test_printn
 179              	.LVL27:
 180              		.loc 1 678 0
 181 00a2 2046     		mov	r0, r4
 182 00a4 FFF7FEFF 		bl	test_println
 183              	.LVL28:
 184              		.loc 1 681 0
 185 00a8 0F48     		ldr	r0, .L4+40
 186 00aa FFF7FEFF 		bl	test_print
 187              	.LVL29:
 188              		.loc 1 682 0
 189 00ae 2820     		movs	r0, #40
 190 00b0 FFF7FEFF 		bl	test_printn
 191              	.LVL30:
 192              		.loc 1 683 0
 193 00b4 2046     		mov	r0, r4
 194              		.loc 1 685 0
 195 00b6 BDE81040 		pop	{r4, lr}
 196              		.loc 1 683 0
 197 00ba FFF7FEBF 		b	test_println
 198              	.LVL31:
 199              	.L5:
 200 00be 00BF     		.align	2
 201              	.L4:
 202 00c0 00000000 		.word	.LC0
 203 00c4 10000000 		.word	.LC1
 204 00c8 18000000 		.word	.LC2
 205 00cc 28000000 		.word	.LC3
 206 00d0 38000000 		.word	.LC4
 207 00d4 48000000 		.word	.LC5
 208 00d8 58000000 		.word	.LC6
 209 00dc 68000000 		.word	.LC7
 210 00e0 78000000 		.word	.LC8
 211 00e4 88000000 		.word	.LC9
 212 00e8 98000000 		.word	.LC10
 213              		.cfi_endproc
 214              	.LFE29:
 215              		.size	bmk13_execute, .-bmk13_execute
 216 00ec AFF30080 		.section	.text.thread1,"ax",%progbits
 217              		.align	2
 218              		.p2align 4,,15
 219              		.thumb
 220              		.thumb_func
 221              		.type	thread1, %function
 222              	thread1:
ARM GAS  /tmp/cc80sxMg.s 			page 5


 223              	.LFB7:
 224              		.loc 1 64 0
 225              		.cfi_startproc
 226              		@ args = 0, pretend = 0, frame = 0
 227              		@ frame_needed = 0, uses_anonymous_args = 0
 228              	.LVL32:
 229 0000 10B5     		push	{r4, lr}
 230              		.cfi_def_cfa_offset 8
 231              		.cfi_offset 4, -8
 232              		.cfi_offset 14, -4
 233              	.LVL33:
 234              	.L8:
 235              		.loc 1 70 0 discriminator 1
 236 0002 FFF7FEFF 		bl	chMsgWait
 237              	.LVL34:
 238              		.loc 1 71 0 discriminator 1
 239 0006 446B     		ldr	r4, [r0, #52]
 240              	.LVL35:
 241              		.loc 1 72 0 discriminator 1
 242 0008 2146     		mov	r1, r4
 243 000a FFF7FEFF 		bl	chMsgRelease
 244              	.LVL36:
 245              		.loc 1 73 0 discriminator 1
 246 000e 002C     		cmp	r4, #0
 247 0010 F7D1     		bne	.L8
 248              		.loc 1 75 0
 249 0012 2046     		mov	r0, r4
 250 0014 10BD     		pop	{r4, pc}
 251              		.cfi_endproc
 252              	.LFE7:
 253              		.size	thread1, .-thread1
 254 0016 00BFAFF3 		.section	.text.bmk6_execute,"ax",%progbits
 254      0080AFF3 
 254      0080
 255              		.align	2
 256              		.p2align 4,,15
 257              		.thumb
 258              		.thumb_func
 259              		.type	bmk6_execute, %function
 260              	bmk6_execute:
 261              	.LFB16:
 262              		.loc 1 304 0
 263              		.cfi_startproc
 264              		@ args = 0, pretend = 0, frame = 0
 265              		@ frame_needed = 0, uses_anonymous_args = 0
 266              	.LVL37:
 267 0000 2DE9F041 		push	{r4, r5, r6, r7, r8, lr}
 268              		.cfi_def_cfa_offset 24
 269              		.cfi_offset 4, -24
 270              		.cfi_offset 5, -20
 271              		.cfi_offset 6, -16
 272              		.cfi_offset 7, -12
 273              		.cfi_offset 8, -8
 274              		.cfi_offset 14, -4
 275              		.loc 1 308 0
 276 0004 144B     		ldr	r3, .L13
 277              		.loc 1 307 0
ARM GAS  /tmp/cc80sxMg.s 			page 6


 278 0006 154A     		ldr	r2, .L13+4
 279              		.loc 1 308 0
 280 0008 9B69     		ldr	r3, [r3, #24]
 281              		.loc 1 307 0
 282 000a D2F80080 		ldr	r8, [r2]
 283              	.LVL38:
 284              		.loc 1 308 0
 285 000e 9E68     		ldr	r6, [r3, #8]
 286 0010 134F     		ldr	r7, .L13+8
 287              		.loc 1 304 0
 288 0012 82B0     		sub	sp, sp, #8
 289              		.cfi_def_cfa_offset 32
 290              		.loc 1 309 0
 291 0014 FFF7FEFF 		bl	test_wait_tick
 292              	.LVL39:
 293              		.loc 1 310 0
 294 0018 4FF47A70 		mov	r0, #1000
 295 001c FFF7FEFF 		bl	test_start_timer
 296              	.LVL40:
 297              		.loc 1 306 0
 298 0020 0024     		movs	r4, #0
 299              		.loc 1 308 0
 300 0022 0136     		adds	r6, r6, #1
 301              	.LVL41:
 302              		.loc 1 312 0
 303 0024 2546     		mov	r5, r4
 304              	.LVL42:
 305              	.L12:
 306              		.loc 1 312 0 is_stmt 0 discriminator 1
 307 0026 0F4B     		ldr	r3, .L13+12
 308 0028 0095     		str	r5, [sp]
 309 002a 4046     		mov	r0, r8
 310 002c 4FF4A871 		mov	r1, #336
 311 0030 3246     		mov	r2, r6
 312 0032 FFF7FEFF 		bl	chThdCreateStatic
 313              	.LVL43:
 314              		.loc 1 317 0 is_stmt 1 discriminator 1
 315 0036 3B78     		ldrb	r3, [r7]	@ zero_extendqisi2
 316              		.loc 1 313 0 discriminator 1
 317 0038 0134     		adds	r4, r4, #1
 318              	.LVL44:
 319              		.loc 1 317 0 discriminator 1
 320 003a 002B     		cmp	r3, #0
 321 003c F3D0     		beq	.L12
 322              		.loc 1 318 0
 323 003e 0A48     		ldr	r0, .L13+16
 324 0040 FFF7FEFF 		bl	test_print
 325              	.LVL45:
 326              		.loc 1 319 0
 327 0044 2046     		mov	r0, r4
 328 0046 FFF7FEFF 		bl	test_printn
 329              	.LVL46:
 330              		.loc 1 320 0
 331 004a 0848     		ldr	r0, .L13+20
 332              		.loc 1 321 0
 333 004c 02B0     		add	sp, sp, #8
 334              		@ sp needed
ARM GAS  /tmp/cc80sxMg.s 			page 7


 335 004e BDE8F041 		pop	{r4, r5, r6, r7, r8, lr}
 336              	.LVL47:
 337              		.loc 1 320 0
 338 0052 FFF7FEBF 		b	test_println
 339              	.LVL48:
 340              	.L14:
 341 0056 00BF     		.align	2
 342              	.L13:
 343 0058 00000000 		.word	rlist
 344 005c 00000000 		.word	wa
 345 0060 00000000 		.word	test_timer_done
 346 0064 00000000 		.word	thread2
 347 0068 A8000000 		.word	.LC11
 348 006c B8000000 		.word	.LC12
 349              		.cfi_endproc
 350              	.LFE16:
 351              		.size	bmk6_execute, .-bmk6_execute
 352              		.section	.text.msg_loop_test,"ax",%progbits
 353              		.align	2
 354              		.p2align 4,,15
 355              		.thumb
 356              		.thumb_func
 357              		.type	msg_loop_test, %function
 358              	msg_loop_test:
 359              	.LFB8:
 360              		.loc 1 80 0
 361              		.cfi_startproc
 362              		@ args = 0, pretend = 0, frame = 0
 363              		@ frame_needed = 0, uses_anonymous_args = 0
 364              	.LVL49:
 365 0000 70B5     		push	{r4, r5, r6, lr}
 366              		.cfi_def_cfa_offset 16
 367              		.cfi_offset 4, -16
 368              		.cfi_offset 5, -12
 369              		.cfi_offset 6, -8
 370              		.cfi_offset 14, -4
 371              		.loc 1 80 0
 372 0002 0546     		mov	r5, r0
 373              		.loc 1 83 0
 374 0004 FFF7FEFF 		bl	test_wait_tick
 375              	.LVL50:
 376              		.loc 1 84 0
 377 0008 4FF47A70 		mov	r0, #1000
 378 000c FFF7FEFF 		bl	test_start_timer
 379              	.LVL51:
 380 0010 074E     		ldr	r6, .L18
 381              		.loc 1 82 0
 382 0012 0024     		movs	r4, #0
 383              	.LVL52:
 384              	.L17:
 385              		.loc 1 86 0 discriminator 1
 386 0014 2846     		mov	r0, r5
 387 0016 0121     		movs	r1, #1
 388 0018 FFF7FEFF 		bl	chMsgSend
 389              	.LVL53:
 390              		.loc 1 91 0 discriminator 1
 391 001c 3378     		ldrb	r3, [r6]	@ zero_extendqisi2
ARM GAS  /tmp/cc80sxMg.s 			page 8


 392              		.loc 1 87 0 discriminator 1
 393 001e 0134     		adds	r4, r4, #1
 394              	.LVL54:
 395              		.loc 1 91 0 discriminator 1
 396 0020 002B     		cmp	r3, #0
 397 0022 F7D0     		beq	.L17
 398              		.loc 1 92 0
 399 0024 2846     		mov	r0, r5
 400 0026 0021     		movs	r1, #0
 401 0028 FFF7FEFF 		bl	chMsgSend
 402              	.LVL55:
 403              		.loc 1 94 0
 404 002c 2046     		mov	r0, r4
 405 002e 70BD     		pop	{r4, r5, r6, pc}
 406              	.LVL56:
 407              	.L19:
 408              		.align	2
 409              	.L18:
 410 0030 00000000 		.word	test_timer_done
 411              		.cfi_endproc
 412              	.LFE8:
 413              		.size	msg_loop_test, .-msg_loop_test
 414 0034 AFF30080 		.section	.text.bmk1_execute,"ax",%progbits
 414      AFF30080 
 414      AFF30080 
 415              		.align	2
 416              		.p2align 4,,15
 417              		.thumb
 418              		.thumb_func
 419              		.type	bmk1_execute, %function
 420              	bmk1_execute:
 421              	.LFB9:
 422              		.loc 1 105 0
 423              		.cfi_startproc
 424              		@ args = 0, pretend = 0, frame = 0
 425              		@ frame_needed = 0, uses_anonymous_args = 0
 426 0000 10B5     		push	{r4, lr}
 427              		.cfi_def_cfa_offset 8
 428              		.cfi_offset 4, -8
 429              		.cfi_offset 14, -4
 430              		.loc 1 108 0
 431 0002 134B     		ldr	r3, .L21
 432 0004 134A     		ldr	r2, .L21+4
 433 0006 9B69     		ldr	r3, [r3, #24]
 434 0008 1068     		ldr	r0, [r2]
 435 000a 9A68     		ldr	r2, [r3, #8]
 436 000c 124B     		ldr	r3, .L21+8
 437              		.loc 1 105 0
 438 000e 82B0     		sub	sp, sp, #8
 439              		.cfi_def_cfa_offset 16
 440              		.loc 1 108 0
 441 0010 0021     		movs	r1, #0
 442 0012 013A     		subs	r2, r2, #1
 443 0014 0091     		str	r1, [sp]
 444 0016 4FF4A871 		mov	r1, #336
 445 001a FFF7FEFF 		bl	chThdCreateStatic
 446              	.LVL57:
ARM GAS  /tmp/cc80sxMg.s 			page 9


 447 001e 0F4B     		ldr	r3, .L21+12
 448 0020 1860     		str	r0, [r3]
 449              		.loc 1 109 0
 450 0022 FFF7FEFF 		bl	msg_loop_test
 451              	.LVL58:
 452 0026 0446     		mov	r4, r0
 453              	.LVL59:
 454              		.loc 1 110 0
 455 0028 FFF7FEFF 		bl	test_wait_threads
 456              	.LVL60:
 457              		.loc 1 111 0
 458 002c 0C48     		ldr	r0, .L21+16
 459 002e FFF7FEFF 		bl	test_print
 460              	.LVL61:
 461              		.loc 1 112 0
 462 0032 2046     		mov	r0, r4
 463 0034 FFF7FEFF 		bl	test_printn
 464              	.LVL62:
 465              		.loc 1 113 0
 466 0038 0A48     		ldr	r0, .L21+20
 467 003a FFF7FEFF 		bl	test_print
 468              	.LVL63:
 469              		.loc 1 114 0
 470 003e 6000     		lsls	r0, r4, #1
 471 0040 FFF7FEFF 		bl	test_printn
 472              	.LVL64:
 473              		.loc 1 115 0
 474 0044 0848     		ldr	r0, .L21+24
 475              		.loc 1 116 0
 476 0046 02B0     		add	sp, sp, #8
 477              		@ sp needed
 478 0048 BDE81040 		pop	{r4, lr}
 479              	.LVL65:
 480              		.loc 1 115 0
 481 004c FFF7FEBF 		b	test_println
 482              	.LVL66:
 483              	.L22:
 484              		.align	2
 485              	.L21:
 486 0050 00000000 		.word	rlist
 487 0054 00000000 		.word	wa
 488 0058 00000000 		.word	thread1
 489 005c 00000000 		.word	threads
 490 0060 A8000000 		.word	.LC11
 491 0064 C4000000 		.word	.LC13
 492 0068 D0000000 		.word	.LC14
 493              		.cfi_endproc
 494              	.LFE9:
 495              		.size	bmk1_execute, .-bmk1_execute
 496 006c AFF30080 		.section	.text.bmk2_execute,"ax",%progbits
 497              		.align	2
 498              		.p2align 4,,15
 499              		.thumb
 500              		.thumb_func
 501              		.type	bmk2_execute, %function
 502              	bmk2_execute:
 503              	.LFB10:
ARM GAS  /tmp/cc80sxMg.s 			page 10


 504              		.loc 1 134 0
 505              		.cfi_startproc
 506              		@ args = 0, pretend = 0, frame = 0
 507              		@ frame_needed = 0, uses_anonymous_args = 0
 508 0000 10B5     		push	{r4, lr}
 509              		.cfi_def_cfa_offset 8
 510              		.cfi_offset 4, -8
 511              		.cfi_offset 14, -4
 512              		.loc 1 137 0
 513 0002 134B     		ldr	r3, .L24
 514 0004 134A     		ldr	r2, .L24+4
 515 0006 9B69     		ldr	r3, [r3, #24]
 516 0008 1068     		ldr	r0, [r2]
 517 000a 9A68     		ldr	r2, [r3, #8]
 518 000c 124B     		ldr	r3, .L24+8
 519              		.loc 1 134 0
 520 000e 82B0     		sub	sp, sp, #8
 521              		.cfi_def_cfa_offset 16
 522              		.loc 1 137 0
 523 0010 0021     		movs	r1, #0
 524 0012 0132     		adds	r2, r2, #1
 525 0014 0091     		str	r1, [sp]
 526 0016 4FF4A871 		mov	r1, #336
 527 001a FFF7FEFF 		bl	chThdCreateStatic
 528              	.LVL67:
 529 001e 0F4B     		ldr	r3, .L24+12
 530 0020 1860     		str	r0, [r3]
 531              		.loc 1 138 0
 532 0022 FFF7FEFF 		bl	msg_loop_test
 533              	.LVL68:
 534 0026 0446     		mov	r4, r0
 535              	.LVL69:
 536              		.loc 1 139 0
 537 0028 FFF7FEFF 		bl	test_wait_threads
 538              	.LVL70:
 539              		.loc 1 140 0
 540 002c 0C48     		ldr	r0, .L24+16
 541 002e FFF7FEFF 		bl	test_print
 542              	.LVL71:
 543              		.loc 1 141 0
 544 0032 2046     		mov	r0, r4
 545 0034 FFF7FEFF 		bl	test_printn
 546              	.LVL72:
 547              		.loc 1 142 0
 548 0038 0A48     		ldr	r0, .L24+20
 549 003a FFF7FEFF 		bl	test_print
 550              	.LVL73:
 551              		.loc 1 143 0
 552 003e 6000     		lsls	r0, r4, #1
 553 0040 FFF7FEFF 		bl	test_printn
 554              	.LVL74:
 555              		.loc 1 144 0
 556 0044 0848     		ldr	r0, .L24+24
 557              		.loc 1 145 0
 558 0046 02B0     		add	sp, sp, #8
 559              		@ sp needed
 560 0048 BDE81040 		pop	{r4, lr}
ARM GAS  /tmp/cc80sxMg.s 			page 11


 561              	.LVL75:
 562              		.loc 1 144 0
 563 004c FFF7FEBF 		b	test_println
 564              	.LVL76:
 565              	.L25:
 566              		.align	2
 567              	.L24:
 568 0050 00000000 		.word	rlist
 569 0054 00000000 		.word	wa
 570 0058 00000000 		.word	thread1
 571 005c 00000000 		.word	threads
 572 0060 A8000000 		.word	.LC11
 573 0064 C4000000 		.word	.LC13
 574 0068 D0000000 		.word	.LC14
 575              		.cfi_endproc
 576              	.LFE10:
 577              		.size	bmk2_execute, .-bmk2_execute
 578 006c AFF30080 		.section	.text.bmk3_execute,"ax",%progbits
 579              		.align	2
 580              		.p2align 4,,15
 581              		.thumb
 582              		.thumb_func
 583              		.type	bmk3_execute, %function
 584              	bmk3_execute:
 585              	.LFB12:
 586              		.loc 1 169 0
 587              		.cfi_startproc
 588              		@ args = 0, pretend = 0, frame = 0
 589              		@ frame_needed = 0, uses_anonymous_args = 0
 590 0000 2DE9F041 		push	{r4, r5, r6, r7, r8, lr}
 591              		.cfi_def_cfa_offset 24
 592              		.cfi_offset 4, -24
 593              		.cfi_offset 5, -20
 594              		.cfi_offset 6, -16
 595              		.cfi_offset 7, -12
 596              		.cfi_offset 8, -8
 597              		.cfi_offset 14, -4
 598              		.loc 1 172 0
 599 0004 2C4F     		ldr	r7, .L27
 600 0006 2D4E     		ldr	r6, .L27+4
 601 0008 BB69     		ldr	r3, [r7, #24]
 602 000a 3068     		ldr	r0, [r6]
 603 000c 9A68     		ldr	r2, [r3, #8]
 604 000e 2C4B     		ldr	r3, .L27+8
 605 0010 2C4C     		ldr	r4, .L27+12
 606              		.loc 1 173 0
 607 0012 DFF8C080 		ldr	r8, .L27+28
 608              		.loc 1 169 0
 609 0016 82B0     		sub	sp, sp, #8
 610              		.cfi_def_cfa_offset 32
 611              		.loc 1 172 0
 612 0018 0025     		movs	r5, #0
 613 001a 0132     		adds	r2, r2, #1
 614 001c 0095     		str	r5, [sp]
 615 001e 4FF4A871 		mov	r1, #336
 616 0022 FFF7FEFF 		bl	chThdCreateStatic
 617              	.LVL77:
ARM GAS  /tmp/cc80sxMg.s 			page 12


 618              		.loc 1 173 0
 619 0026 BA69     		ldr	r2, [r7, #24]
 620 0028 7368     		ldr	r3, [r6, #4]
 621 002a 9268     		ldr	r2, [r2, #8]
 622              		.loc 1 172 0
 623 002c 2060     		str	r0, [r4]
 624              		.loc 1 173 0
 625 002e 023A     		subs	r2, r2, #2
 626 0030 0095     		str	r5, [sp]
 627 0032 1846     		mov	r0, r3
 628 0034 4FF4A871 		mov	r1, #336
 629 0038 4346     		mov	r3, r8
 630 003a FFF7FEFF 		bl	chThdCreateStatic
 631              	.LVL78:
 632              		.loc 1 174 0
 633 003e BA69     		ldr	r2, [r7, #24]
 634 0040 B368     		ldr	r3, [r6, #8]
 635 0042 9268     		ldr	r2, [r2, #8]
 636              		.loc 1 173 0
 637 0044 6060     		str	r0, [r4, #4]
 638              		.loc 1 174 0
 639 0046 033A     		subs	r2, r2, #3
 640 0048 0095     		str	r5, [sp]
 641 004a 1846     		mov	r0, r3
 642 004c 4FF4A871 		mov	r1, #336
 643 0050 4346     		mov	r3, r8
 644 0052 FFF7FEFF 		bl	chThdCreateStatic
 645              	.LVL79:
 646              		.loc 1 175 0
 647 0056 BA69     		ldr	r2, [r7, #24]
 648 0058 F368     		ldr	r3, [r6, #12]
 649 005a 9268     		ldr	r2, [r2, #8]
 650              		.loc 1 174 0
 651 005c A060     		str	r0, [r4, #8]
 652              		.loc 1 175 0
 653 005e 043A     		subs	r2, r2, #4
 654 0060 0095     		str	r5, [sp]
 655 0062 1846     		mov	r0, r3
 656 0064 4FF4A871 		mov	r1, #336
 657 0068 4346     		mov	r3, r8
 658 006a FFF7FEFF 		bl	chThdCreateStatic
 659              	.LVL80:
 660              		.loc 1 176 0
 661 006e BA69     		ldr	r2, [r7, #24]
 662 0070 3369     		ldr	r3, [r6, #16]
 663 0072 9268     		ldr	r2, [r2, #8]
 664              		.loc 1 175 0
 665 0074 E060     		str	r0, [r4, #12]
 666              		.loc 1 176 0
 667 0076 053A     		subs	r2, r2, #5
 668 0078 4FF4A871 		mov	r1, #336
 669 007c 1846     		mov	r0, r3
 670 007e 0095     		str	r5, [sp]
 671 0080 4346     		mov	r3, r8
 672 0082 FFF7FEFF 		bl	chThdCreateStatic
 673              	.LVL81:
 674 0086 2061     		str	r0, [r4, #16]
ARM GAS  /tmp/cc80sxMg.s 			page 13


 675              		.loc 1 177 0
 676 0088 2068     		ldr	r0, [r4]
 677 008a FFF7FEFF 		bl	msg_loop_test
 678              	.LVL82:
 679 008e 0446     		mov	r4, r0
 680              	.LVL83:
 681              		.loc 1 178 0
 682 0090 FFF7FEFF 		bl	test_wait_threads
 683              	.LVL84:
 684              		.loc 1 179 0
 685 0094 0C48     		ldr	r0, .L27+16
 686 0096 FFF7FEFF 		bl	test_print
 687              	.LVL85:
 688              		.loc 1 180 0
 689 009a 2046     		mov	r0, r4
 690 009c FFF7FEFF 		bl	test_printn
 691              	.LVL86:
 692              		.loc 1 181 0
 693 00a0 0A48     		ldr	r0, .L27+20
 694 00a2 FFF7FEFF 		bl	test_print
 695              	.LVL87:
 696              		.loc 1 182 0
 697 00a6 6000     		lsls	r0, r4, #1
 698 00a8 FFF7FEFF 		bl	test_printn
 699              	.LVL88:
 700              		.loc 1 183 0
 701 00ac 0848     		ldr	r0, .L27+24
 702              		.loc 1 184 0
 703 00ae 02B0     		add	sp, sp, #8
 704              		@ sp needed
 705 00b0 BDE8F041 		pop	{r4, r5, r6, r7, r8, lr}
 706              	.LVL89:
 707              		.loc 1 183 0
 708 00b4 FFF7FEBF 		b	test_println
 709              	.LVL90:
 710              	.L28:
 711              		.align	2
 712              	.L27:
 713 00b8 00000000 		.word	rlist
 714 00bc 00000000 		.word	wa
 715 00c0 00000000 		.word	thread1
 716 00c4 00000000 		.word	threads
 717 00c8 A8000000 		.word	.LC11
 718 00cc C4000000 		.word	.LC13
 719 00d0 D0000000 		.word	.LC14
 720 00d4 00000000 		.word	thread2
 721              		.cfi_endproc
 722              	.LFE12:
 723              		.size	bmk3_execute, .-bmk3_execute
 724 00d8 AFF30080 		.section	.text.thread4,"ax",%progbits
 724      AFF30080 
 725              		.align	2
 726              		.p2align 4,,15
 727              		.global	thread4
 728              		.thumb
 729              		.thumb_func
 730              		.type	thread4, %function
ARM GAS  /tmp/cc80sxMg.s 			page 14


 731              	thread4:
 732              	.LFB13:
 733              		.loc 1 203 0
 734              		.cfi_startproc
 735              		@ args = 0, pretend = 0, frame = 0
 736              		@ frame_needed = 0, uses_anonymous_args = 0
 737              	.LVL91:
 738              		.loc 1 205 0
 739 0000 084A     		ldr	r2, .L32
 740              		.loc 1 203 0
 741 0002 10B5     		push	{r4, lr}
 742              		.cfi_def_cfa_offset 8
 743              		.cfi_offset 4, -8
 744              		.cfi_offset 14, -4
 745              	.LBB2:
 746              		.loc 1 208 0
 747 0004 2023     		movs	r3, #32
 748              	.LBE2:
 749              		.loc 1 205 0
 750 0006 9469     		ldr	r4, [r2, #24]
 751              	.LVL92:
 752              	.LBB3:
 753              		.loc 1 208 0
 754              	@ 208 "../../test/testbmk.c" 1
 755 0008 83F31188 		msr     BASEPRI, r3
 756              	@ 0 "" 2
 757              	.LVL93:
 758              		.thumb
 759              	.L31:
 760              	.LBE3:
 761              		.loc 1 210 0 discriminator 1
 762 000c 0220     		movs	r0, #2
 763 000e FFF7FEFF 		bl	chSchGoSleepS
 764              	.LVL94:
 765              		.loc 1 212 0 discriminator 1
 766 0012 636A     		ldr	r3, [r4, #36]
 767 0014 002B     		cmp	r3, #0
 768 0016 F9D0     		beq	.L31
 769              	.LBB4:
 770              		.loc 1 213 0
 771 0018 0023     		movs	r3, #0
 772              	@ 213 "../../test/testbmk.c" 1
 773 001a 83F31188 		msr     BASEPRI, r3
 774              	@ 0 "" 2
 775              		.thumb
 776              	.LBE4:
 777              		.loc 1 215 0
 778 001e 1846     		mov	r0, r3
 779 0020 10BD     		pop	{r4, pc}
 780              	.LVL95:
 781              	.L33:
 782 0022 00BF     		.align	2
 783              	.L32:
 784 0024 00000000 		.word	rlist
 785              		.cfi_endproc
 786              	.LFE13:
 787              		.size	thread4, .-thread4
ARM GAS  /tmp/cc80sxMg.s 			page 15


 788 0028 AFF30080 		.section	.text.bmk4_execute,"ax",%progbits
 788      AFF30080 
 789              		.align	2
 790              		.p2align 4,,15
 791              		.thumb
 792              		.thumb_func
 793              		.type	bmk4_execute, %function
 794              	bmk4_execute:
 795              	.LFB14:
 796              		.loc 1 217 0
 797              		.cfi_startproc
 798              		@ args = 0, pretend = 0, frame = 0
 799              		@ frame_needed = 0, uses_anonymous_args = 0
 800 0000 70B5     		push	{r4, r5, r6, lr}
 801              		.cfi_def_cfa_offset 16
 802              		.cfi_offset 4, -16
 803              		.cfi_offset 5, -12
 804              		.cfi_offset 6, -8
 805              		.cfi_offset 14, -4
 806              		.loc 1 221 0
 807 0002 254B     		ldr	r3, .L37
 808 0004 254A     		ldr	r2, .L37+4
 809 0006 9B69     		ldr	r3, [r3, #24]
 810 0008 1068     		ldr	r0, [r2]
 811 000a 9A68     		ldr	r2, [r3, #8]
 812 000c 244B     		ldr	r3, .L37+8
 813 000e 254E     		ldr	r6, .L37+12
 814              		.loc 1 217 0
 815 0010 82B0     		sub	sp, sp, #8
 816              		.cfi_def_cfa_offset 24
 817              		.loc 1 221 0
 818 0012 0025     		movs	r5, #0
 819 0014 0132     		adds	r2, r2, #1
 820 0016 4FF4A871 		mov	r1, #336
 821 001a 0095     		str	r5, [sp]
 822 001c FFF7FEFF 		bl	chThdCreateStatic
 823              	.LVL96:
 824 0020 214B     		ldr	r3, .L37+16
 825 0022 0446     		mov	r4, r0
 826 0024 1860     		str	r0, [r3]
 827              	.LVL97:
 828              		.loc 1 223 0
 829 0026 FFF7FEFF 		bl	test_wait_tick
 830              	.LVL98:
 831              		.loc 1 224 0
 832 002a 4FF47A70 		mov	r0, #1000
 833 002e FFF7FEFF 		bl	test_start_timer
 834              	.LVL99:
 835              	.L36:
 836              	.LBB5:
 837              		.loc 1 226 0 discriminator 1
 838 0032 2023     		movs	r3, #32
 839              	@ 226 "../../test/testbmk.c" 1
 840 0034 83F31188 		msr     BASEPRI, r3
 841              	@ 0 "" 2
 842              		.thumb
 843              	.LBE5:
ARM GAS  /tmp/cc80sxMg.s 			page 16


 844              		.loc 1 227 0 discriminator 1
 845 0038 0021     		movs	r1, #0
 846 003a 2046     		mov	r0, r4
 847 003c FFF7FEFF 		bl	chSchWakeupS
 848              	.LVL100:
 849              		.loc 1 228 0 discriminator 1
 850 0040 2046     		mov	r0, r4
 851 0042 0021     		movs	r1, #0
 852 0044 FFF7FEFF 		bl	chSchWakeupS
 853              	.LVL101:
 854              		.loc 1 229 0 discriminator 1
 855 0048 2046     		mov	r0, r4
 856 004a 0021     		movs	r1, #0
 857 004c FFF7FEFF 		bl	chSchWakeupS
 858              	.LVL102:
 859              		.loc 1 230 0 discriminator 1
 860 0050 2046     		mov	r0, r4
 861 0052 0021     		movs	r1, #0
 862 0054 FFF7FEFF 		bl	chSchWakeupS
 863              	.LVL103:
 864              	.LBB6:
 865              		.loc 1 231 0 discriminator 1
 866 0058 0023     		movs	r3, #0
 867              	@ 231 "../../test/testbmk.c" 1
 868 005a 83F31188 		msr     BASEPRI, r3
 869              	@ 0 "" 2
 870              		.thumb
 871              	.LBE6:
 872              		.loc 1 236 0 discriminator 1
 873 005e 3378     		ldrb	r3, [r6]	@ zero_extendqisi2
 874              		.loc 1 232 0 discriminator 1
 875 0060 0435     		adds	r5, r5, #4
 876              	.LVL104:
 877              		.loc 1 236 0 discriminator 1
 878 0062 002B     		cmp	r3, #0
 879 0064 E5D0     		beq	.L36
 880              	.LBB7:
 881              		.loc 1 237 0
 882 0066 2023     		movs	r3, #32
 883              	@ 237 "../../test/testbmk.c" 1
 884 0068 83F31188 		msr     BASEPRI, r3
 885              	@ 0 "" 2
 886              		.thumb
 887              	.LBE7:
 888              		.loc 1 238 0
 889 006c 4FF0FF31 		mov	r1, #-1
 890 0070 2046     		mov	r0, r4
 891 0072 FFF7FEFF 		bl	chSchWakeupS
 892              	.LVL105:
 893              	.LBB8:
 894              		.loc 1 239 0
 895 0076 0023     		movs	r3, #0
 896              	@ 239 "../../test/testbmk.c" 1
 897 0078 83F31188 		msr     BASEPRI, r3
 898              	@ 0 "" 2
 899              		.thumb
 900              	.LBE8:
ARM GAS  /tmp/cc80sxMg.s 			page 17


 901              		.loc 1 241 0
 902 007c FFF7FEFF 		bl	test_wait_threads
 903              	.LVL106:
 904              		.loc 1 242 0
 905 0080 0A48     		ldr	r0, .L37+20
 906 0082 FFF7FEFF 		bl	test_print
 907              	.LVL107:
 908              		.loc 1 243 0
 909 0086 6800     		lsls	r0, r5, #1
 910 0088 FFF7FEFF 		bl	test_printn
 911              	.LVL108:
 912              		.loc 1 244 0
 913 008c 0848     		ldr	r0, .L37+24
 914              		.loc 1 245 0
 915 008e 02B0     		add	sp, sp, #8
 916              		@ sp needed
 917 0090 BDE87040 		pop	{r4, r5, r6, lr}
 918              	.LVL109:
 919              		.loc 1 244 0
 920 0094 FFF7FEBF 		b	test_println
 921              	.LVL110:
 922              	.L38:
 923              		.align	2
 924              	.L37:
 925 0098 00000000 		.word	rlist
 926 009c 00000000 		.word	wa
 927 00a0 00000000 		.word	thread4
 928 00a4 00000000 		.word	test_timer_done
 929 00a8 00000000 		.word	threads
 930 00ac A8000000 		.word	.LC11
 931 00b0 D0000000 		.word	.LC14
 932              		.cfi_endproc
 933              	.LFE14:
 934              		.size	bmk4_execute, .-bmk4_execute
 935 00b4 AFF30080 		.section	.text.bmk5_execute,"ax",%progbits
 935      AFF30080 
 935      AFF30080 
 936              		.align	2
 937              		.p2align 4,,15
 938              		.thumb
 939              		.thumb_func
 940              		.type	bmk5_execute, %function
 941              	bmk5_execute:
 942              	.LFB15:
 943              		.loc 1 265 0
 944              		.cfi_startproc
 945              		@ args = 0, pretend = 0, frame = 0
 946              		@ frame_needed = 0, uses_anonymous_args = 0
 947              	.LVL111:
 948 0000 2DE9F041 		push	{r4, r5, r6, r7, r8, lr}
 949              		.cfi_def_cfa_offset 24
 950              		.cfi_offset 4, -24
 951              		.cfi_offset 5, -20
 952              		.cfi_offset 6, -16
 953              		.cfi_offset 7, -12
 954              		.cfi_offset 8, -8
 955              		.cfi_offset 14, -4
ARM GAS  /tmp/cc80sxMg.s 			page 18


 956              		.loc 1 269 0
 957 0004 154B     		ldr	r3, .L42
 958              		.loc 1 268 0
 959 0006 164A     		ldr	r2, .L42+4
 960              		.loc 1 269 0
 961 0008 9B69     		ldr	r3, [r3, #24]
 962              		.loc 1 268 0
 963 000a D2F80080 		ldr	r8, [r2]
 964              	.LVL112:
 965              		.loc 1 269 0
 966 000e 9E68     		ldr	r6, [r3, #8]
 967 0010 144F     		ldr	r7, .L42+8
 968              		.loc 1 265 0
 969 0012 82B0     		sub	sp, sp, #8
 970              		.cfi_def_cfa_offset 32
 971              		.loc 1 270 0
 972 0014 FFF7FEFF 		bl	test_wait_tick
 973              	.LVL113:
 974              		.loc 1 271 0
 975 0018 4FF47A70 		mov	r0, #1000
 976 001c FFF7FEFF 		bl	test_start_timer
 977              	.LVL114:
 978              		.loc 1 267 0
 979 0020 0024     		movs	r4, #0
 980              		.loc 1 269 0
 981 0022 013E     		subs	r6, r6, #1
 982              	.LVL115:
 983              		.loc 1 273 0
 984 0024 2546     		mov	r5, r4
 985              	.LVL116:
 986              	.L41:
 987              		.loc 1 273 0 is_stmt 0 discriminator 1
 988 0026 104B     		ldr	r3, .L42+12
 989 0028 0095     		str	r5, [sp]
 990 002a 4FF4A871 		mov	r1, #336
 991 002e 3246     		mov	r2, r6
 992 0030 4046     		mov	r0, r8
 993 0032 FFF7FEFF 		bl	chThdCreateStatic
 994              	.LVL117:
 995 0036 FFF7FEFF 		bl	chThdWait
 996              	.LVL118:
 997              		.loc 1 278 0 is_stmt 1 discriminator 1
 998 003a 3B78     		ldrb	r3, [r7]	@ zero_extendqisi2
 999              		.loc 1 274 0 discriminator 1
 1000 003c 0134     		adds	r4, r4, #1
 1001              	.LVL119:
 1002              		.loc 1 278 0 discriminator 1
 1003 003e 002B     		cmp	r3, #0
 1004 0040 F1D0     		beq	.L41
 1005              		.loc 1 279 0
 1006 0042 0A48     		ldr	r0, .L42+16
 1007 0044 FFF7FEFF 		bl	test_print
 1008              	.LVL120:
 1009              		.loc 1 280 0
 1010 0048 2046     		mov	r0, r4
 1011 004a FFF7FEFF 		bl	test_printn
 1012              	.LVL121:
ARM GAS  /tmp/cc80sxMg.s 			page 19


 1013              		.loc 1 281 0
 1014 004e 0848     		ldr	r0, .L42+20
 1015              		.loc 1 282 0
 1016 0050 02B0     		add	sp, sp, #8
 1017              		@ sp needed
 1018 0052 BDE8F041 		pop	{r4, r5, r6, r7, r8, lr}
 1019              	.LVL122:
 1020              		.loc 1 281 0
 1021 0056 FFF7FEBF 		b	test_println
 1022              	.LVL123:
 1023              	.L43:
 1024 005a 00BF     		.align	2
 1025              	.L42:
 1026 005c 00000000 		.word	rlist
 1027 0060 00000000 		.word	wa
 1028 0064 00000000 		.word	test_timer_done
 1029 0068 00000000 		.word	thread2
 1030 006c A8000000 		.word	.LC11
 1031 0070 B8000000 		.word	.LC12
 1032              		.cfi_endproc
 1033              	.LFE15:
 1034              		.size	bmk5_execute, .-bmk5_execute
 1035 0074 AFF30080 		.section	.text.bmk7_execute,"ax",%progbits
 1035      AFF30080 
 1035      AFF30080 
 1036              		.align	2
 1037              		.p2align 4,,15
 1038              		.thumb
 1039              		.thumb_func
 1040              		.type	bmk7_execute, %function
 1041              	bmk7_execute:
 1042              	.LFB19:
 1043              		.loc 1 354 0
 1044              		.cfi_startproc
 1045              		@ args = 0, pretend = 0, frame = 0
 1046              		@ frame_needed = 0, uses_anonymous_args = 0
 1047 0000 2DE9F041 		push	{r4, r5, r6, r7, r8, lr}
 1048              		.cfi_def_cfa_offset 24
 1049              		.cfi_offset 4, -24
 1050              		.cfi_offset 5, -20
 1051              		.cfi_offset 6, -16
 1052              		.cfi_offset 7, -12
 1053              		.cfi_offset 8, -8
 1054              		.cfi_offset 14, -4
 1055              		.loc 1 357 0
 1056 0004 DFF80081 		ldr	r8, .L47+32
 1057 0008 374F     		ldr	r7, .L47
 1058 000a D8F81830 		ldr	r3, [r8, #24]
 1059 000e 3868     		ldr	r0, [r7]
 1060 0010 9A68     		ldr	r2, [r3, #8]
 1061 0012 364B     		ldr	r3, .L47+4
 1062 0014 364E     		ldr	r6, .L47+8
 1063 0016 374D     		ldr	r5, .L47+12
 1064              		.loc 1 354 0
 1065 0018 82B0     		sub	sp, sp, #8
 1066              		.cfi_def_cfa_offset 32
 1067              		.loc 1 357 0
ARM GAS  /tmp/cc80sxMg.s 			page 20


 1068 001a 0024     		movs	r4, #0
 1069 001c 0532     		adds	r2, r2, #5
 1070 001e 4FF4A871 		mov	r1, #336
 1071 0022 0094     		str	r4, [sp]
 1072 0024 FFF7FEFF 		bl	chThdCreateStatic
 1073              	.LVL124:
 1074              		.loc 1 358 0
 1075 0028 D8F81820 		ldr	r2, [r8, #24]
 1076 002c 7B68     		ldr	r3, [r7, #4]
 1077 002e 9268     		ldr	r2, [r2, #8]
 1078              		.loc 1 357 0
 1079 0030 3060     		str	r0, [r6]
 1080              		.loc 1 358 0
 1081 0032 0432     		adds	r2, r2, #4
 1082 0034 1846     		mov	r0, r3
 1083 0036 4FF4A871 		mov	r1, #336
 1084 003a 2C4B     		ldr	r3, .L47+4
 1085 003c 0094     		str	r4, [sp]
 1086 003e FFF7FEFF 		bl	chThdCreateStatic
 1087              	.LVL125:
 1088              		.loc 1 359 0
 1089 0042 D8F81820 		ldr	r2, [r8, #24]
 1090 0046 BB68     		ldr	r3, [r7, #8]
 1091 0048 9268     		ldr	r2, [r2, #8]
 1092              		.loc 1 358 0
 1093 004a 7060     		str	r0, [r6, #4]
 1094              		.loc 1 359 0
 1095 004c 0332     		adds	r2, r2, #3
 1096 004e 1846     		mov	r0, r3
 1097 0050 4FF4A871 		mov	r1, #336
 1098 0054 254B     		ldr	r3, .L47+4
 1099 0056 0094     		str	r4, [sp]
 1100 0058 FFF7FEFF 		bl	chThdCreateStatic
 1101              	.LVL126:
 1102              		.loc 1 360 0
 1103 005c D8F81820 		ldr	r2, [r8, #24]
 1104 0060 FB68     		ldr	r3, [r7, #12]
 1105 0062 9268     		ldr	r2, [r2, #8]
 1106              		.loc 1 359 0
 1107 0064 B060     		str	r0, [r6, #8]
 1108              		.loc 1 360 0
 1109 0066 0232     		adds	r2, r2, #2
 1110 0068 1846     		mov	r0, r3
 1111 006a 4FF4A871 		mov	r1, #336
 1112 006e 1F4B     		ldr	r3, .L47+4
 1113 0070 0094     		str	r4, [sp]
 1114 0072 FFF7FEFF 		bl	chThdCreateStatic
 1115              	.LVL127:
 1116              		.loc 1 361 0
 1117 0076 D8F81820 		ldr	r2, [r8, #24]
 1118 007a 3B69     		ldr	r3, [r7, #16]
 1119 007c 9268     		ldr	r2, [r2, #8]
 1120              		.loc 1 360 0
 1121 007e F060     		str	r0, [r6, #12]
 1122              		.loc 1 361 0
 1123 0080 0132     		adds	r2, r2, #1
 1124 0082 1846     		mov	r0, r3
ARM GAS  /tmp/cc80sxMg.s 			page 21


 1125 0084 4FF4A871 		mov	r1, #336
 1126 0088 184B     		ldr	r3, .L47+4
 1127 008a 0094     		str	r4, [sp]
 1128 008c FFF7FEFF 		bl	chThdCreateStatic
 1129              	.LVL128:
 1130 0090 3061     		str	r0, [r6, #16]
 1131              	.LVL129:
 1132              		.loc 1 364 0
 1133 0092 FFF7FEFF 		bl	test_wait_tick
 1134              	.LVL130:
 1135              		.loc 1 365 0
 1136 0096 4FF47A70 		mov	r0, #1000
 1137 009a FFF7FEFF 		bl	test_start_timer
 1138              	.LVL131:
 1139              	.L46:
 1140              		.loc 1 367 0 discriminator 1
 1141 009e 1648     		ldr	r0, .L47+16
 1142 00a0 0021     		movs	r1, #0
 1143 00a2 FFF7FEFF 		bl	chSemReset
 1144              	.LVL132:
 1145              		.loc 1 372 0 discriminator 1
 1146 00a6 2B78     		ldrb	r3, [r5]	@ zero_extendqisi2
 1147              		.loc 1 368 0 discriminator 1
 1148 00a8 0134     		adds	r4, r4, #1
 1149              	.LVL133:
 1150              		.loc 1 372 0 discriminator 1
 1151 00aa 002B     		cmp	r3, #0
 1152 00ac F7D0     		beq	.L46
 1153              		.loc 1 373 0
 1154 00ae FFF7FEFF 		bl	test_terminate_threads
 1155              	.LVL134:
 1156              		.loc 1 374 0
 1157 00b2 0021     		movs	r1, #0
 1158 00b4 1048     		ldr	r0, .L47+16
 1159 00b6 FFF7FEFF 		bl	chSemReset
 1160              	.LVL135:
 1161              		.loc 1 375 0
 1162 00ba FFF7FEFF 		bl	test_wait_threads
 1163              	.LVL136:
 1164              		.loc 1 377 0
 1165 00be 0F48     		ldr	r0, .L47+20
 1166 00c0 FFF7FEFF 		bl	test_print
 1167              	.LVL137:
 1168              		.loc 1 378 0
 1169 00c4 2046     		mov	r0, r4
 1170 00c6 FFF7FEFF 		bl	test_printn
 1171              	.LVL138:
 1172              		.loc 1 379 0
 1173 00ca 0D48     		ldr	r0, .L47+24
 1174 00cc FFF7FEFF 		bl	test_print
 1175              	.LVL139:
 1176              		.loc 1 380 0
 1177 00d0 04EB4400 		add	r0, r4, r4, lsl #1
 1178 00d4 4000     		lsls	r0, r0, #1
 1179 00d6 FFF7FEFF 		bl	test_printn
 1180              	.LVL140:
 1181              		.loc 1 381 0
ARM GAS  /tmp/cc80sxMg.s 			page 22


 1182 00da 0A48     		ldr	r0, .L47+28
 1183              		.loc 1 382 0
 1184 00dc 02B0     		add	sp, sp, #8
 1185              		@ sp needed
 1186 00de BDE8F041 		pop	{r4, r5, r6, r7, r8, lr}
 1187              	.LVL141:
 1188              		.loc 1 381 0
 1189 00e2 FFF7FEBF 		b	test_println
 1190              	.LVL142:
 1191              	.L48:
 1192 00e6 00BF     		.align	2
 1193              	.L47:
 1194 00e8 00000000 		.word	wa
 1195 00ec 00000000 		.word	thread3
 1196 00f0 00000000 		.word	threads
 1197 00f4 00000000 		.word	test_timer_done
 1198 00f8 00000000 		.word	.LANCHOR0
 1199 00fc A8000000 		.word	.LC11
 1200 0100 DC000000 		.word	.LC15
 1201 0104 D0000000 		.word	.LC14
 1202 0108 00000000 		.word	rlist
 1203              		.cfi_endproc
 1204              	.LFE19:
 1205              		.size	bmk7_execute, .-bmk7_execute
 1206 010c AFF30080 		.section	.text.thread3,"ax",%progbits
 1207              		.align	2
 1208              		.p2align 4,,15
 1209              		.thumb
 1210              		.thumb_func
 1211              		.type	thread3, %function
 1212              	thread3:
 1213              	.LFB17:
 1214              		.loc 1 341 0
 1215              		.cfi_startproc
 1216              		@ args = 0, pretend = 0, frame = 0
 1217              		@ frame_needed = 0, uses_anonymous_args = 0
 1218              	.LVL143:
 1219 0000 10B5     		push	{r4, lr}
 1220              		.cfi_def_cfa_offset 8
 1221              		.cfi_offset 4, -8
 1222              		.cfi_offset 14, -4
 1223              		.loc 1 344 0
 1224 0002 074C     		ldr	r4, .L54
 1225 0004 A369     		ldr	r3, [r4, #24]
 1226 0006 5B7F     		ldrb	r3, [r3, #29]	@ zero_extendqisi2
 1227 0008 5A07     		lsls	r2, r3, #29
 1228 000a 06D4     		bmi	.L53
 1229              	.LVL144:
 1230              	.L52:
 1231              		.loc 1 345 0
 1232 000c 0548     		ldr	r0, .L54+4
 1233 000e FFF7FEFF 		bl	chSemWait
 1234              	.LVL145:
 1235              		.loc 1 344 0
 1236 0012 A369     		ldr	r3, [r4, #24]
 1237 0014 5B7F     		ldrb	r3, [r3, #29]	@ zero_extendqisi2
 1238 0016 5B07     		lsls	r3, r3, #29
ARM GAS  /tmp/cc80sxMg.s 			page 23


 1239 0018 F8D5     		bpl	.L52
 1240              	.L53:
 1241              		.loc 1 347 0
 1242 001a 0020     		movs	r0, #0
 1243 001c 10BD     		pop	{r4, pc}
 1244              	.L55:
 1245 001e 00BF     		.align	2
 1246              	.L54:
 1247 0020 00000000 		.word	rlist
 1248 0024 00000000 		.word	.LANCHOR0
 1249              		.cfi_endproc
 1250              	.LFE17:
 1251              		.size	thread3, .-thread3
 1252              		.section	.text.bmk7_setup,"ax",%progbits
 1253              		.align	2
 1254              		.p2align 4,,15
 1255              		.thumb
 1256              		.thumb_func
 1257              		.type	bmk7_setup, %function
 1258              	bmk7_setup:
 1259              	.LFB18:
 1260              		.loc 1 349 0
 1261              		.cfi_startproc
 1262              		@ args = 0, pretend = 0, frame = 0
 1263              		@ frame_needed = 0, uses_anonymous_args = 0
 1264              		@ link register save eliminated.
 1265              		.loc 1 351 0
 1266 0000 0148     		ldr	r0, .L57
 1267 0002 0021     		movs	r1, #0
 1268 0004 FFF7FEBF 		b	chSemInit
 1269              	.LVL146:
 1270              	.L58:
 1271              		.align	2
 1272              	.L57:
 1273 0008 00000000 		.word	.LANCHOR0
 1274              		.cfi_endproc
 1275              	.LFE18:
 1276              		.size	bmk7_setup, .-bmk7_setup
 1277 000c AFF30080 		.section	.text.bmk11_setup,"ax",%progbits
 1278              		.align	2
 1279              		.p2align 4,,15
 1280              		.thumb
 1281              		.thumb_func
 1282              		.type	bmk11_setup, %function
 1283              	bmk11_setup:
 1284              	.LFB25:
 1285              		.loc 1 545 0
 1286              		.cfi_startproc
 1287              		@ args = 0, pretend = 0, frame = 0
 1288              		@ frame_needed = 0, uses_anonymous_args = 0
 1289              		@ link register save eliminated.
 1290              		.loc 1 547 0
 1291 0000 0148     		ldr	r0, .L60
 1292 0002 0121     		movs	r1, #1
 1293 0004 FFF7FEBF 		b	chSemInit
 1294              	.LVL147:
 1295              	.L61:
ARM GAS  /tmp/cc80sxMg.s 			page 24


 1296              		.align	2
 1297              	.L60:
 1298 0008 00000000 		.word	.LANCHOR0
 1299              		.cfi_endproc
 1300              	.LFE25:
 1301              		.size	bmk11_setup, .-bmk11_setup
 1302 000c AFF30080 		.section	.text.bmk8_execute,"ax",%progbits
 1303              		.align	2
 1304              		.p2align 4,,15
 1305              		.thumb
 1306              		.thumb_func
 1307              		.type	bmk8_execute, %function
 1308              	bmk8_execute:
 1309              	.LFB21:
 1310              		.loc 1 416 0
 1311              		.cfi_startproc
 1312              		@ args = 0, pretend = 0, frame = 8
 1313              		@ frame_needed = 0, uses_anonymous_args = 0
 1314 0000 2DE9F041 		push	{r4, r5, r6, r7, r8, lr}
 1315              		.cfi_def_cfa_offset 24
 1316              		.cfi_offset 4, -24
 1317              		.cfi_offset 5, -20
 1318              		.cfi_offset 6, -16
 1319              		.cfi_offset 7, -12
 1320              		.cfi_offset 8, -8
 1321              		.cfi_offset 14, -4
 1322 0004 84B0     		sub	sp, sp, #16
 1323              		.cfi_def_cfa_offset 40
 1324              		.loc 1 419 0
 1325 0006 04AC     		add	r4, sp, #16
 1326              		.loc 1 422 0
 1327 0008 DFF8CC80 		ldr	r8, .L63+20
 1328 000c 2D4F     		ldr	r7, .L63
 1329 000e 2E4E     		ldr	r6, .L63+4
 1330 0010 2E4D     		ldr	r5, .L63+8
 1331              		.loc 1 419 0
 1332 0012 0023     		movs	r3, #0
 1333 0014 44F8043D 		str	r3, [r4, #-4]!
 1334              		.loc 1 420 0
 1335 0018 FFF7FEFF 		bl	test_wait_tick
 1336              	.LVL148:
 1337              		.loc 1 422 0
 1338 001c D8F81830 		ldr	r3, [r8, #24]
 1339 0020 3868     		ldr	r0, [r7]
 1340 0022 9A68     		ldr	r2, [r3, #8]
 1341 0024 0094     		str	r4, [sp]
 1342 0026 3346     		mov	r3, r6
 1343 0028 013A     		subs	r2, r2, #1
 1344 002a 4FF4A871 		mov	r1, #336
 1345 002e FFF7FEFF 		bl	chThdCreateStatic
 1346              	.LVL149:
 1347              		.loc 1 423 0
 1348 0032 D8F81820 		ldr	r2, [r8, #24]
 1349 0036 7B68     		ldr	r3, [r7, #4]
 1350 0038 9268     		ldr	r2, [r2, #8]
 1351              		.loc 1 422 0
 1352 003a 2860     		str	r0, [r5]
ARM GAS  /tmp/cc80sxMg.s 			page 25


 1353              		.loc 1 423 0
 1354 003c 013A     		subs	r2, r2, #1
 1355 003e 0094     		str	r4, [sp]
 1356 0040 1846     		mov	r0, r3
 1357 0042 4FF4A871 		mov	r1, #336
 1358 0046 3346     		mov	r3, r6
 1359 0048 FFF7FEFF 		bl	chThdCreateStatic
 1360              	.LVL150:
 1361              		.loc 1 424 0
 1362 004c D8F81820 		ldr	r2, [r8, #24]
 1363 0050 BB68     		ldr	r3, [r7, #8]
 1364 0052 9268     		ldr	r2, [r2, #8]
 1365              		.loc 1 423 0
 1366 0054 6860     		str	r0, [r5, #4]
 1367              		.loc 1 424 0
 1368 0056 013A     		subs	r2, r2, #1
 1369 0058 0094     		str	r4, [sp]
 1370 005a 1846     		mov	r0, r3
 1371 005c 4FF4A871 		mov	r1, #336
 1372 0060 3346     		mov	r3, r6
 1373 0062 FFF7FEFF 		bl	chThdCreateStatic
 1374              	.LVL151:
 1375              		.loc 1 425 0
 1376 0066 D8F81820 		ldr	r2, [r8, #24]
 1377 006a FB68     		ldr	r3, [r7, #12]
 1378 006c 9268     		ldr	r2, [r2, #8]
 1379              		.loc 1 424 0
 1380 006e A860     		str	r0, [r5, #8]
 1381              		.loc 1 425 0
 1382 0070 013A     		subs	r2, r2, #1
 1383 0072 0094     		str	r4, [sp]
 1384 0074 1846     		mov	r0, r3
 1385 0076 4FF4A871 		mov	r1, #336
 1386 007a 3346     		mov	r3, r6
 1387 007c FFF7FEFF 		bl	chThdCreateStatic
 1388              	.LVL152:
 1389              		.loc 1 426 0
 1390 0080 D8F81820 		ldr	r2, [r8, #24]
 1391 0084 3B69     		ldr	r3, [r7, #16]
 1392 0086 9268     		ldr	r2, [r2, #8]
 1393              		.loc 1 425 0
 1394 0088 E860     		str	r0, [r5, #12]
 1395              		.loc 1 426 0
 1396 008a 013A     		subs	r2, r2, #1
 1397 008c 4FF4A871 		mov	r1, #336
 1398 0090 0094     		str	r4, [sp]
 1399 0092 1846     		mov	r0, r3
 1400 0094 3346     		mov	r3, r6
 1401 0096 FFF7FEFF 		bl	chThdCreateStatic
 1402              	.LVL153:
 1403 009a 2861     		str	r0, [r5, #16]
 1404              		.loc 1 428 0
 1405 009c 4FF47A70 		mov	r0, #1000
 1406 00a0 FFF7FEFF 		bl	chThdSleep
 1407              	.LVL154:
 1408              		.loc 1 429 0
 1409 00a4 FFF7FEFF 		bl	test_terminate_threads
ARM GAS  /tmp/cc80sxMg.s 			page 26


 1410              	.LVL155:
 1411              		.loc 1 430 0
 1412 00a8 FFF7FEFF 		bl	test_wait_threads
 1413              	.LVL156:
 1414              		.loc 1 432 0
 1415 00ac 0848     		ldr	r0, .L63+12
 1416 00ae FFF7FEFF 		bl	test_print
 1417              	.LVL157:
 1418              		.loc 1 433 0
 1419 00b2 0398     		ldr	r0, [sp, #12]
 1420 00b4 FFF7FEFF 		bl	test_printn
 1421              	.LVL158:
 1422              		.loc 1 434 0
 1423 00b8 0648     		ldr	r0, .L63+16
 1424 00ba FFF7FEFF 		bl	test_println
 1425              	.LVL159:
 1426              		.loc 1 435 0
 1427 00be 04B0     		add	sp, sp, #16
 1428              		@ sp needed
 1429 00c0 BDE8F081 		pop	{r4, r5, r6, r7, r8, pc}
 1430              	.L64:
 1431              		.align	2
 1432              	.L63:
 1433 00c4 00000000 		.word	wa
 1434 00c8 00000000 		.word	thread8
 1435 00cc 00000000 		.word	threads
 1436 00d0 A8000000 		.word	.LC11
 1437 00d4 D0000000 		.word	.LC14
 1438 00d8 00000000 		.word	rlist
 1439              		.cfi_endproc
 1440              	.LFE21:
 1441              		.size	bmk8_execute, .-bmk8_execute
 1442 00dc AFF30080 		.section	.text.thread8,"ax",%progbits
 1443              		.align	2
 1444              		.p2align 4,,15
 1445              		.thumb
 1446              		.thumb_func
 1447              		.type	thread8, %function
 1448              	thread8:
 1449              	.LFB20:
 1450              		.loc 1 401 0
 1451              		.cfi_startproc
 1452              		@ args = 0, pretend = 0, frame = 0
 1453              		@ frame_needed = 0, uses_anonymous_args = 0
 1454              	.LVL160:
 1455 0000 38B5     		push	{r3, r4, r5, lr}
 1456              		.cfi_def_cfa_offset 16
 1457              		.cfi_offset 3, -16
 1458              		.cfi_offset 4, -12
 1459              		.cfi_offset 5, -8
 1460              		.cfi_offset 14, -4
 1461 0002 094D     		ldr	r5, .L68
 1462              		.loc 1 401 0
 1463 0004 0446     		mov	r4, r0
 1464              	.LVL161:
 1465              	.L67:
 1466              		.loc 1 404 0 discriminator 1
ARM GAS  /tmp/cc80sxMg.s 			page 27


 1467 0006 FFF7FEFF 		bl	chThdYield
 1468              	.LVL162:
 1469              		.loc 1 405 0 discriminator 1
 1470 000a FFF7FEFF 		bl	chThdYield
 1471              	.LVL163:
 1472              		.loc 1 406 0 discriminator 1
 1473 000e FFF7FEFF 		bl	chThdYield
 1474              	.LVL164:
 1475              		.loc 1 407 0 discriminator 1
 1476 0012 FFF7FEFF 		bl	chThdYield
 1477              	.LVL165:
 1478              		.loc 1 408 0 discriminator 1
 1479 0016 2368     		ldr	r3, [r4]
 1480              		.loc 1 412 0 discriminator 1
 1481 0018 AA69     		ldr	r2, [r5, #24]
 1482              		.loc 1 408 0 discriminator 1
 1483 001a 0433     		adds	r3, r3, #4
 1484 001c 2360     		str	r3, [r4]
 1485              		.loc 1 412 0 discriminator 1
 1486 001e 537F     		ldrb	r3, [r2, #29]	@ zero_extendqisi2
 1487 0020 5B07     		lsls	r3, r3, #29
 1488 0022 F0D5     		bpl	.L67
 1489              		.loc 1 414 0
 1490 0024 0020     		movs	r0, #0
 1491 0026 38BD     		pop	{r3, r4, r5, pc}
 1492              	.LVL166:
 1493              	.L69:
 1494              		.align	2
 1495              	.L68:
 1496 0028 00000000 		.word	rlist
 1497              		.cfi_endproc
 1498              	.LFE20:
 1499              		.size	thread8, .-thread8
 1500 002c AFF30080 		.section	.text.bmk9_execute,"ax",%progbits
 1501              		.align	2
 1502              		.p2align 4,,15
 1503              		.thumb
 1504              		.thumb_func
 1505              		.type	bmk9_execute, %function
 1506              	bmk9_execute:
 1507              	.LFB22:
 1508              		.loc 1 455 0
 1509              		.cfi_startproc
 1510              		@ args = 0, pretend = 0, frame = 0
 1511              		@ frame_needed = 0, uses_anonymous_args = 0
 1512 0000 30B5     		push	{r4, r5, lr}
 1513              		.cfi_def_cfa_offset 12
 1514              		.cfi_offset 4, -12
 1515              		.cfi_offset 5, -8
 1516              		.cfi_offset 14, -4
 1517 0002 83B0     		sub	sp, sp, #12
 1518              		.cfi_def_cfa_offset 24
 1519              		.loc 1 460 0
 1520 0004 0024     		movs	r4, #0
 1521 0006 2346     		mov	r3, r4
 1522 0008 2348     		ldr	r0, .L73
 1523 000a 2449     		ldr	r1, .L73+4
ARM GAS  /tmp/cc80sxMg.s 			page 28


 1524 000c 0094     		str	r4, [sp]
 1525 000e 1022     		movs	r2, #16
 1526 0010 FFF7FEFF 		bl	chIQInit
 1527              	.LVL167:
 1528              		.loc 1 462 0
 1529 0014 FFF7FEFF 		bl	test_wait_tick
 1530              	.LVL168:
 1531              		.loc 1 463 0
 1532 0018 4FF47A70 		mov	r0, #1000
 1533 001c 204D     		ldr	r5, .L73+8
 1534 001e FFF7FEFF 		bl	test_start_timer
 1535              	.LVL169:
 1536              	.L72:
 1537              	.LBB9:
 1538              		.loc 1 465 0 discriminator 1
 1539 0022 2023     		movs	r3, #32
 1540              	@ 465 "../../test/testbmk.c" 1
 1541 0024 83F31188 		msr     BASEPRI, r3
 1542              	@ 0 "" 2
 1543              		.thumb
 1544              	.LBE9:
 1545              		.loc 1 466 0 discriminator 1
 1546 0028 0021     		movs	r1, #0
 1547 002a 1B48     		ldr	r0, .L73
 1548 002c FFF7FEFF 		bl	chIQPutI
 1549              	.LVL170:
 1550              		.loc 1 467 0 discriminator 1
 1551 0030 0121     		movs	r1, #1
 1552 0032 1948     		ldr	r0, .L73
 1553 0034 FFF7FEFF 		bl	chIQPutI
 1554              	.LVL171:
 1555              		.loc 1 468 0 discriminator 1
 1556 0038 0221     		movs	r1, #2
 1557 003a 1748     		ldr	r0, .L73
 1558 003c FFF7FEFF 		bl	chIQPutI
 1559              	.LVL172:
 1560              		.loc 1 469 0 discriminator 1
 1561 0040 0321     		movs	r1, #3
 1562 0042 1548     		ldr	r0, .L73
 1563 0044 FFF7FEFF 		bl	chIQPutI
 1564              	.LVL173:
 1565              	.LBB10:
 1566              		.loc 1 470 0 discriminator 1
 1567 0048 0023     		movs	r3, #0
 1568              	@ 470 "../../test/testbmk.c" 1
 1569 004a 83F31188 		msr     BASEPRI, r3
 1570              	@ 0 "" 2
 1571              		.thumb
 1572              	.LBE10:
 1573              		.loc 1 471 0 discriminator 1
 1574 004e 4FF0FF31 		mov	r1, #-1
 1575 0052 1148     		ldr	r0, .L73
 1576 0054 FFF7FEFF 		bl	chIQGetTimeout
 1577              	.LVL174:
 1578              		.loc 1 472 0 discriminator 1
 1579 0058 4FF0FF31 		mov	r1, #-1
 1580 005c 0E48     		ldr	r0, .L73
ARM GAS  /tmp/cc80sxMg.s 			page 29


 1581 005e FFF7FEFF 		bl	chIQGetTimeout
 1582              	.LVL175:
 1583              		.loc 1 473 0 discriminator 1
 1584 0062 4FF0FF31 		mov	r1, #-1
 1585 0066 0C48     		ldr	r0, .L73
 1586 0068 FFF7FEFF 		bl	chIQGetTimeout
 1587              	.LVL176:
 1588              		.loc 1 474 0 discriminator 1
 1589 006c 0A48     		ldr	r0, .L73
 1590 006e 4FF0FF31 		mov	r1, #-1
 1591 0072 FFF7FEFF 		bl	chIQGetTimeout
 1592              	.LVL177:
 1593              		.loc 1 479 0 discriminator 1
 1594 0076 2B78     		ldrb	r3, [r5]	@ zero_extendqisi2
 1595              		.loc 1 475 0 discriminator 1
 1596 0078 0134     		adds	r4, r4, #1
 1597              	.LVL178:
 1598              		.loc 1 479 0 discriminator 1
 1599 007a 002B     		cmp	r3, #0
 1600 007c D1D0     		beq	.L72
 1601              		.loc 1 480 0
 1602 007e 0948     		ldr	r0, .L73+12
 1603 0080 FFF7FEFF 		bl	test_print
 1604              	.LVL179:
 1605              		.loc 1 481 0
 1606 0084 A000     		lsls	r0, r4, #2
 1607 0086 FFF7FEFF 		bl	test_printn
 1608              	.LVL180:
 1609              		.loc 1 482 0
 1610 008a 0748     		ldr	r0, .L73+16
 1611              		.loc 1 483 0
 1612 008c 03B0     		add	sp, sp, #12
 1613              		@ sp needed
 1614 008e BDE83040 		pop	{r4, r5, lr}
 1615              	.LVL181:
 1616              		.loc 1 482 0
 1617 0092 FFF7FEBF 		b	test_println
 1618              	.LVL182:
 1619              	.L74:
 1620 0096 00BF     		.align	2
 1621              	.L73:
 1622 0098 00000000 		.word	.LANCHOR1
 1623 009c 00000000 		.word	.LANCHOR2
 1624 00a0 00000000 		.word	test_timer_done
 1625 00a4 A8000000 		.word	.LC11
 1626 00a8 F0000000 		.word	.LC16
 1627              		.cfi_endproc
 1628              	.LFE22:
 1629              		.size	bmk9_execute, .-bmk9_execute
 1630 00ac AFF30080 		.section	.text.bmk10_execute,"ax",%progbits
 1631              		.align	2
 1632              		.p2align 4,,15
 1633              		.thumb
 1634              		.thumb_func
 1635              		.type	bmk10_execute, %function
 1636              	bmk10_execute:
 1637              	.LFB24:
ARM GAS  /tmp/cc80sxMg.s 			page 30


 1638              		.loc 1 504 0
 1639              		.cfi_startproc
 1640              		@ args = 0, pretend = 0, frame = 0
 1641              		@ frame_needed = 0, uses_anonymous_args = 0
 1642              	.LVL183:
 1643 0000 38B5     		push	{r3, r4, r5, lr}
 1644              		.cfi_def_cfa_offset 16
 1645              		.cfi_offset 3, -16
 1646              		.cfi_offset 4, -12
 1647              		.cfi_offset 5, -8
 1648              		.cfi_offset 14, -4
 1649              		.loc 1 508 0
 1650 0002 FFF7FEFF 		bl	test_wait_tick
 1651              	.LVL184:
 1652              		.loc 1 509 0
 1653 0006 4FF47A70 		mov	r0, #1000
 1654 000a FFF7FEFF 		bl	test_start_timer
 1655              	.LVL185:
 1656 000e 154D     		ldr	r5, .L78
 1657              		.loc 1 506 0
 1658 0010 0024     		movs	r4, #0
 1659              	.LVL186:
 1660              	.L77:
 1661              	.LBB11:
 1662              		.loc 1 511 0 discriminator 1
 1663 0012 2023     		movs	r3, #32
 1664              	@ 511 "../../test/testbmk.c" 1
 1665 0014 83F31188 		msr     BASEPRI, r3
 1666              	@ 0 "" 2
 1667              		.thumb
 1668              	.LBE11:
 1669              		.loc 1 512 0 discriminator 1
 1670 0018 1348     		ldr	r0, .L78+4
 1671 001a 144A     		ldr	r2, .L78+8
 1672 001c 0121     		movs	r1, #1
 1673 001e 0023     		movs	r3, #0
 1674 0020 FFF7FEFF 		bl	chVTSetI
 1675              	.LVL187:
 1676              		.loc 1 513 0 discriminator 1
 1677 0024 114A     		ldr	r2, .L78+8
 1678 0026 1248     		ldr	r0, .L78+12
 1679 0028 42F21071 		movw	r1, #10000
 1680 002c 0023     		movs	r3, #0
 1681 002e FFF7FEFF 		bl	chVTSetI
 1682              	.LVL188:
 1683              		.loc 1 514 0 discriminator 1
 1684 0032 0D48     		ldr	r0, .L78+4
 1685 0034 FFF7FEFF 		bl	chVTResetI
 1686              	.LVL189:
 1687              		.loc 1 515 0 discriminator 1
 1688 0038 0D48     		ldr	r0, .L78+12
 1689 003a FFF7FEFF 		bl	chVTResetI
 1690              	.LVL190:
 1691              	.LBB12:
 1692              		.loc 1 516 0 discriminator 1
 1693 003e 0023     		movs	r3, #0
 1694              	@ 516 "../../test/testbmk.c" 1
ARM GAS  /tmp/cc80sxMg.s 			page 31


 1695 0040 83F31188 		msr     BASEPRI, r3
 1696              	@ 0 "" 2
 1697              		.thumb
 1698              	.LBE12:
 1699              		.loc 1 521 0 discriminator 1
 1700 0044 2B78     		ldrb	r3, [r5]	@ zero_extendqisi2
 1701              		.loc 1 517 0 discriminator 1
 1702 0046 0134     		adds	r4, r4, #1
 1703              	.LVL191:
 1704              		.loc 1 521 0 discriminator 1
 1705 0048 002B     		cmp	r3, #0
 1706 004a E2D0     		beq	.L77
 1707              		.loc 1 522 0
 1708 004c 0948     		ldr	r0, .L78+16
 1709 004e FFF7FEFF 		bl	test_print
 1710              	.LVL192:
 1711              		.loc 1 523 0
 1712 0052 6000     		lsls	r0, r4, #1
 1713 0054 FFF7FEFF 		bl	test_printn
 1714              	.LVL193:
 1715              		.loc 1 524 0
 1716 0058 0748     		ldr	r0, .L78+20
 1717              		.loc 1 525 0
 1718 005a BDE83840 		pop	{r3, r4, r5, lr}
 1719              	.LVL194:
 1720              		.loc 1 524 0
 1721 005e FFF7FEBF 		b	test_println
 1722              	.LVL195:
 1723              	.L79:
 1724 0062 00BF     		.align	2
 1725              	.L78:
 1726 0064 00000000 		.word	test_timer_done
 1727 0068 00000000 		.word	.LANCHOR3
 1728 006c 00000000 		.word	tmo
 1729 0070 00000000 		.word	.LANCHOR4
 1730 0074 A8000000 		.word	.LC11
 1731 0078 FC000000 		.word	.LC17
 1732              		.cfi_endproc
 1733              	.LFE24:
 1734              		.size	bmk10_execute, .-bmk10_execute
 1735 007c AFF30080 		.section	.text.bmk11_execute,"ax",%progbits
 1736              		.align	2
 1737              		.p2align 4,,15
 1738              		.thumb
 1739              		.thumb_func
 1740              		.type	bmk11_execute, %function
 1741              	bmk11_execute:
 1742              	.LFB26:
 1743              		.loc 1 550 0
 1744              		.cfi_startproc
 1745              		@ args = 0, pretend = 0, frame = 0
 1746              		@ frame_needed = 0, uses_anonymous_args = 0
 1747              	.LVL196:
 1748 0000 38B5     		push	{r3, r4, r5, lr}
 1749              		.cfi_def_cfa_offset 16
 1750              		.cfi_offset 3, -16
 1751              		.cfi_offset 4, -12
ARM GAS  /tmp/cc80sxMg.s 			page 32


 1752              		.cfi_offset 5, -8
 1753              		.cfi_offset 14, -4
 1754              		.loc 1 553 0
 1755 0002 FFF7FEFF 		bl	test_wait_tick
 1756              	.LVL197:
 1757              		.loc 1 554 0
 1758 0006 4FF47A70 		mov	r0, #1000
 1759 000a FFF7FEFF 		bl	test_start_timer
 1760              	.LVL198:
 1761 000e 144D     		ldr	r5, .L83
 1762              		.loc 1 551 0
 1763 0010 0024     		movs	r4, #0
 1764              	.LVL199:
 1765              	.L82:
 1766              		.loc 1 556 0 discriminator 1
 1767 0012 1448     		ldr	r0, .L83+4
 1768 0014 FFF7FEFF 		bl	chSemWait
 1769              	.LVL200:
 1770              		.loc 1 557 0 discriminator 1
 1771 0018 1248     		ldr	r0, .L83+4
 1772 001a FFF7FEFF 		bl	chSemSignal
 1773              	.LVL201:
 1774              		.loc 1 558 0 discriminator 1
 1775 001e 1148     		ldr	r0, .L83+4
 1776 0020 FFF7FEFF 		bl	chSemWait
 1777              	.LVL202:
 1778              		.loc 1 559 0 discriminator 1
 1779 0024 0F48     		ldr	r0, .L83+4
 1780 0026 FFF7FEFF 		bl	chSemSignal
 1781              	.LVL203:
 1782              		.loc 1 560 0 discriminator 1
 1783 002a 0E48     		ldr	r0, .L83+4
 1784 002c FFF7FEFF 		bl	chSemWait
 1785              	.LVL204:
 1786              		.loc 1 561 0 discriminator 1
 1787 0030 0C48     		ldr	r0, .L83+4
 1788 0032 FFF7FEFF 		bl	chSemSignal
 1789              	.LVL205:
 1790              		.loc 1 562 0 discriminator 1
 1791 0036 0B48     		ldr	r0, .L83+4
 1792 0038 FFF7FEFF 		bl	chSemWait
 1793              	.LVL206:
 1794              		.loc 1 563 0 discriminator 1
 1795 003c 0948     		ldr	r0, .L83+4
 1796 003e FFF7FEFF 		bl	chSemSignal
 1797              	.LVL207:
 1798              		.loc 1 568 0 discriminator 1
 1799 0042 2B78     		ldrb	r3, [r5]	@ zero_extendqisi2
 1800              		.loc 1 564 0 discriminator 1
 1801 0044 0134     		adds	r4, r4, #1
 1802              	.LVL208:
 1803              		.loc 1 568 0 discriminator 1
 1804 0046 002B     		cmp	r3, #0
 1805 0048 E3D0     		beq	.L82
 1806              		.loc 1 569 0
 1807 004a 0748     		ldr	r0, .L83+8
 1808 004c FFF7FEFF 		bl	test_print
ARM GAS  /tmp/cc80sxMg.s 			page 33


 1809              	.LVL209:
 1810              		.loc 1 570 0
 1811 0050 A000     		lsls	r0, r4, #2
 1812 0052 FFF7FEFF 		bl	test_printn
 1813              	.LVL210:
 1814              		.loc 1 571 0
 1815 0056 0548     		ldr	r0, .L83+12
 1816              		.loc 1 572 0
 1817 0058 BDE83840 		pop	{r3, r4, r5, lr}
 1818              	.LVL211:
 1819              		.loc 1 571 0
 1820 005c FFF7FEBF 		b	test_println
 1821              	.LVL212:
 1822              	.L84:
 1823              		.align	2
 1824              	.L83:
 1825 0060 00000000 		.word	test_timer_done
 1826 0064 00000000 		.word	.LANCHOR0
 1827 0068 A8000000 		.word	.LC11
 1828 006c 08010000 		.word	.LC18
 1829              		.cfi_endproc
 1830              	.LFE26:
 1831              		.size	bmk11_execute, .-bmk11_execute
 1832              		.section	.text.bmk12_execute,"ax",%progbits
 1833              		.align	2
 1834              		.p2align 4,,15
 1835              		.thumb
 1836              		.thumb_func
 1837              		.type	bmk12_execute, %function
 1838              	bmk12_execute:
 1839              	.LFB28:
 1840              		.loc 1 598 0
 1841              		.cfi_startproc
 1842              		@ args = 0, pretend = 0, frame = 0
 1843              		@ frame_needed = 0, uses_anonymous_args = 0
 1844              	.LVL213:
 1845 0000 38B5     		push	{r3, r4, r5, lr}
 1846              		.cfi_def_cfa_offset 16
 1847              		.cfi_offset 3, -16
 1848              		.cfi_offset 4, -12
 1849              		.cfi_offset 5, -8
 1850              		.cfi_offset 14, -4
 1851              		.loc 1 601 0
 1852 0002 FFF7FEFF 		bl	test_wait_tick
 1853              	.LVL214:
 1854              		.loc 1 602 0
 1855 0006 4FF47A70 		mov	r0, #1000
 1856 000a FFF7FEFF 		bl	test_start_timer
 1857              	.LVL215:
 1858 000e 124D     		ldr	r5, .L88
 1859              		.loc 1 599 0
 1860 0010 0024     		movs	r4, #0
 1861              	.LVL216:
 1862              	.L87:
 1863              		.loc 1 604 0 discriminator 1
 1864 0012 1248     		ldr	r0, .L88+4
 1865 0014 FFF7FEFF 		bl	chMtxLock
ARM GAS  /tmp/cc80sxMg.s 			page 34


 1866              	.LVL217:
 1867              		.loc 1 605 0 discriminator 1
 1868 0018 FFF7FEFF 		bl	chMtxUnlock
 1869              	.LVL218:
 1870              		.loc 1 606 0 discriminator 1
 1871 001c 0F48     		ldr	r0, .L88+4
 1872 001e FFF7FEFF 		bl	chMtxLock
 1873              	.LVL219:
 1874              		.loc 1 607 0 discriminator 1
 1875 0022 FFF7FEFF 		bl	chMtxUnlock
 1876              	.LVL220:
 1877              		.loc 1 608 0 discriminator 1
 1878 0026 0D48     		ldr	r0, .L88+4
 1879 0028 FFF7FEFF 		bl	chMtxLock
 1880              	.LVL221:
 1881              		.loc 1 609 0 discriminator 1
 1882 002c FFF7FEFF 		bl	chMtxUnlock
 1883              	.LVL222:
 1884              		.loc 1 610 0 discriminator 1
 1885 0030 0A48     		ldr	r0, .L88+4
 1886 0032 FFF7FEFF 		bl	chMtxLock
 1887              	.LVL223:
 1888              		.loc 1 611 0 discriminator 1
 1889 0036 FFF7FEFF 		bl	chMtxUnlock
 1890              	.LVL224:
 1891              		.loc 1 616 0 discriminator 1
 1892 003a 2B78     		ldrb	r3, [r5]	@ zero_extendqisi2
 1893              		.loc 1 612 0 discriminator 1
 1894 003c 0134     		adds	r4, r4, #1
 1895              	.LVL225:
 1896              		.loc 1 616 0 discriminator 1
 1897 003e 002B     		cmp	r3, #0
 1898 0040 E7D0     		beq	.L87
 1899              		.loc 1 617 0
 1900 0042 0748     		ldr	r0, .L88+8
 1901 0044 FFF7FEFF 		bl	test_print
 1902              	.LVL226:
 1903              		.loc 1 618 0
 1904 0048 A000     		lsls	r0, r4, #2
 1905 004a FFF7FEFF 		bl	test_printn
 1906              	.LVL227:
 1907              		.loc 1 619 0
 1908 004e 0548     		ldr	r0, .L88+12
 1909              		.loc 1 620 0
 1910 0050 BDE83840 		pop	{r3, r4, r5, lr}
 1911              	.LVL228:
 1912              		.loc 1 619 0
 1913 0054 FFF7FEBF 		b	test_println
 1914              	.LVL229:
 1915              	.L89:
 1916              		.align	2
 1917              	.L88:
 1918 0058 00000000 		.word	test_timer_done
 1919 005c 00000000 		.word	.LANCHOR5
 1920 0060 A8000000 		.word	.LC11
 1921 0064 18010000 		.word	.LC19
 1922              		.cfi_endproc
ARM GAS  /tmp/cc80sxMg.s 			page 35


 1923              	.LFE28:
 1924              		.size	bmk12_execute, .-bmk12_execute
 1925 0068 AFF30080 		.section	.text.bmk12_setup,"ax",%progbits
 1925      AFF30080 
 1926              		.align	2
 1927              		.p2align 4,,15
 1928              		.thumb
 1929              		.thumb_func
 1930              		.type	bmk12_setup, %function
 1931              	bmk12_setup:
 1932              	.LFB27:
 1933              		.loc 1 593 0
 1934              		.cfi_startproc
 1935              		@ args = 0, pretend = 0, frame = 0
 1936              		@ frame_needed = 0, uses_anonymous_args = 0
 1937              		@ link register save eliminated.
 1938              		.loc 1 595 0
 1939 0000 0148     		ldr	r0, .L91
 1940 0002 FFF7FEBF 		b	chMtxInit
 1941              	.LVL230:
 1942              	.L92:
 1943 0006 00BF     		.align	2
 1944              	.L91:
 1945 0008 00000000 		.word	.LANCHOR5
 1946              		.cfi_endproc
 1947              	.LFE27:
 1948              		.size	bmk12_setup, .-bmk12_setup
 1949              		.global	patternbmk
 1950              		.global	testbmk13
 1951              		.global	testbmk12
 1952              		.global	testbmk11
 1953              		.global	testbmk10
 1954              		.global	testbmk9
 1955              		.global	testbmk8
 1956              		.global	testbmk7
 1957              		.global	testbmk6
 1958              		.global	testbmk5
 1959              		.global	testbmk4
 1960              		.global	testbmk3
 1961              		.global	testbmk2
 1962              		.global	testbmk1
 1963 000c AFF30080 		.section	.rodata.testbmk8,"a",%progbits
 1964              		.align	2
 1965              		.type	testbmk8, %object
 1966              		.size	testbmk8, 16
 1967              	testbmk8:
 1968 0000 D0010000 		.word	.LC25
 1969 0004 00000000 		.word	0
 1970 0008 00000000 		.word	0
 1971 000c 00000000 		.word	bmk8_execute
 1972              		.section	.rodata.patternbmk,"a",%progbits
 1973              		.align	2
 1974              		.type	patternbmk, %object
 1975              		.size	patternbmk, 56
 1976              	patternbmk:
 1977 0000 00000000 		.word	testbmk1
 1978 0004 00000000 		.word	testbmk2
ARM GAS  /tmp/cc80sxMg.s 			page 36


 1979 0008 00000000 		.word	testbmk3
 1980 000c 00000000 		.word	testbmk4
 1981 0010 00000000 		.word	testbmk5
 1982 0014 00000000 		.word	testbmk6
 1983 0018 00000000 		.word	testbmk7
 1984 001c 00000000 		.word	testbmk8
 1985 0020 00000000 		.word	testbmk9
 1986 0024 00000000 		.word	testbmk10
 1987 0028 00000000 		.word	testbmk11
 1988 002c 00000000 		.word	testbmk12
 1989 0030 00000000 		.word	testbmk13
 1990 0034 00000000 		.word	0
 1991              		.section	.bss.ib.4944,"aw",%nobits
 1992              		.align	2
 1993              		.set	.LANCHOR2,. + 0
 1994              		.type	ib.4944, %object
 1995              		.size	ib.4944, 16
 1996              	ib.4944:
 1997 0000 00000000 		.space	16
 1997      00000000 
 1997      00000000 
 1997      00000000 
 1998              		.section	.rodata.testbmk2,"a",%progbits
 1999              		.align	2
 2000              		.type	testbmk2, %object
 2001              		.size	testbmk2, 16
 2002              	testbmk2:
 2003 0000 98020000 		.word	.LC31
 2004 0004 00000000 		.word	0
 2005 0008 00000000 		.word	0
 2006 000c 00000000 		.word	bmk2_execute
 2007              		.section	.bss.vt2.4958,"aw",%nobits
 2008              		.align	2
 2009              		.set	.LANCHOR4,. + 0
 2010              		.type	vt2.4958, %object
 2011              		.size	vt2.4958, 20
 2012              	vt2.4958:
 2013 0000 00000000 		.space	20
 2013      00000000 
 2013      00000000 
 2013      00000000 
 2013      00000000 
 2014              		.section	.rodata.testbmk10,"a",%progbits
 2015              		.align	2
 2016              		.type	testbmk10, %object
 2017              		.size	testbmk10, 16
 2018              	testbmk10:
 2019 0000 88010000 		.word	.LC23
 2020 0004 00000000 		.word	0
 2021 0008 00000000 		.word	0
 2022 000c 00000000 		.word	bmk10_execute
 2023              		.section	.rodata.testbmk4,"a",%progbits
 2024              		.align	2
 2025              		.type	testbmk4, %object
 2026              		.size	testbmk4, 16
 2027              	testbmk4:
 2028 0000 64020000 		.word	.LC29
ARM GAS  /tmp/cc80sxMg.s 			page 37


 2029 0004 00000000 		.word	0
 2030 0008 00000000 		.word	0
 2031 000c 00000000 		.word	bmk4_execute
 2032              		.section	.bss.vt1.4957,"aw",%nobits
 2033              		.align	2
 2034              		.set	.LANCHOR3,. + 0
 2035              		.type	vt1.4957, %object
 2036              		.size	vt1.4957, 20
 2037              	vt1.4957:
 2038 0000 00000000 		.space	20
 2038      00000000 
 2038      00000000 
 2038      00000000 
 2038      00000000 
 2039              		.section	.rodata.testbmk3,"a",%progbits
 2040              		.align	2
 2041              		.type	testbmk3, %object
 2042              		.size	testbmk3, 16
 2043              	testbmk3:
 2044 0000 80020000 		.word	.LC30
 2045 0004 00000000 		.word	0
 2046 0008 00000000 		.word	0
 2047 000c 00000000 		.word	bmk3_execute
 2048              		.section	.rodata.testbmk6,"a",%progbits
 2049              		.align	2
 2050              		.type	testbmk6, %object
 2051              		.size	testbmk6, 16
 2052              	testbmk6:
 2053 0000 24020000 		.word	.LC27
 2054 0004 00000000 		.word	0
 2055 0008 00000000 		.word	0
 2056 000c 00000000 		.word	bmk6_execute
 2057              		.section	.rodata.str1.4,"aMS",%progbits,1
 2058              		.align	2
 2059              	.LC0:
 2060 0000 2D2D2D20 		.ascii	"--- System: \000"
 2060      53797374 
 2060      656D3A20 
 2060      00
 2061 000d 000000   		.space	3
 2062              	.LC1:
 2063 0010 20627974 		.ascii	" bytes\000"
 2063      657300
 2064 0017 00       		.space	1
 2065              	.LC2:
 2066 0018 2D2D2D20 		.ascii	"--- Thread: \000"
 2066      54687265 
 2066      61643A20 
 2066      00
 2067 0025 000000   		.space	3
 2068              	.LC3:
 2069 0028 2D2D2D20 		.ascii	"--- Timer : \000"
 2069      54696D65 
 2069      72203A20 
 2069      00
 2070 0035 000000   		.space	3
 2071              	.LC4:
ARM GAS  /tmp/cc80sxMg.s 			page 38


 2072 0038 2D2D2D20 		.ascii	"--- Semaph: \000"
 2072      53656D61 
 2072      70683A20 
 2072      00
 2073 0045 000000   		.space	3
 2074              	.LC5:
 2075 0048 2D2D2D20 		.ascii	"--- EventS: \000"
 2075      4576656E 
 2075      74533A20 
 2075      00
 2076 0055 000000   		.space	3
 2077              	.LC6:
 2078 0058 2D2D2D20 		.ascii	"--- EventL: \000"
 2078      4576656E 
 2078      744C3A20 
 2078      00
 2079 0065 000000   		.space	3
 2080              	.LC7:
 2081 0068 2D2D2D20 		.ascii	"--- Mutex : \000"
 2081      4D757465 
 2081      78203A20 
 2081      00
 2082 0075 000000   		.space	3
 2083              	.LC8:
 2084 0078 2D2D2D20 		.ascii	"--- CondV.: \000"
 2084      436F6E64 
 2084      562E3A20 
 2084      00
 2085 0085 000000   		.space	3
 2086              	.LC9:
 2087 0088 2D2D2D20 		.ascii	"--- Queue : \000"
 2087      51756575 
 2087      65203A20 
 2087      00
 2088 0095 000000   		.space	3
 2089              	.LC10:
 2090 0098 2D2D2D20 		.ascii	"--- MailB.: \000"
 2090      4D61696C 
 2090      422E3A20 
 2090      00
 2091 00a5 000000   		.space	3
 2092              	.LC11:
 2093 00a8 2D2D2D20 		.ascii	"--- Score : \000"
 2093      53636F72 
 2093      65203A20 
 2093      00
 2094 00b5 000000   		.space	3
 2095              	.LC12:
 2096 00b8 20746872 		.ascii	" threads/S\000"
 2096      65616473 
 2096      2F5300
 2097 00c3 00       		.space	1
 2098              	.LC13:
 2099 00c4 206D7367 		.ascii	" msgs/S, \000"
 2099      732F532C 
 2099      2000
 2100 00ce 0000     		.space	2
ARM GAS  /tmp/cc80sxMg.s 			page 39


 2101              	.LC14:
 2102 00d0 20637478 		.ascii	" ctxswc/S\000"
 2102      7377632F 
 2102      5300
 2103 00da 0000     		.space	2
 2104              	.LC15:
 2105 00dc 20726573 		.ascii	" reschedules/S, \000"
 2105      63686564 
 2105      756C6573 
 2105      2F532C20 
 2105      00
 2106 00ed 000000   		.space	3
 2107              	.LC16:
 2108 00f0 20627974 		.ascii	" bytes/S\000"
 2108      65732F53 
 2108      00
 2109 00f9 000000   		.space	3
 2110              	.LC17:
 2111 00fc 2074696D 		.ascii	" timers/S\000"
 2111      6572732F 
 2111      5300
 2112 0106 0000     		.space	2
 2113              	.LC18:
 2114 0108 20776169 		.ascii	" wait+signal/S\000"
 2114      742B7369 
 2114      676E616C 
 2114      2F5300
 2115 0117 00       		.space	1
 2116              	.LC19:
 2117 0118 206C6F63 		.ascii	" lock+unlock/S\000"
 2117      6B2B756E 
 2117      6C6F636B 
 2117      2F5300
 2118 0127 00       		.space	1
 2119              	.LC20:
 2120 0128 42656E63 		.ascii	"Benchmark, RAM footprint\000"
 2120      686D6172 
 2120      6B2C2052 
 2120      414D2066 
 2120      6F6F7470 
 2121 0141 000000   		.space	3
 2122              	.LC21:
 2123 0144 42656E63 		.ascii	"Benchmark, mutexes lock/unlock\000"
 2123      686D6172 
 2123      6B2C206D 
 2123      75746578 
 2123      6573206C 
 2124 0163 00       		.space	1
 2125              	.LC22:
 2126 0164 42656E63 		.ascii	"Benchmark, semaphores wait/signal\000"
 2126      686D6172 
 2126      6B2C2073 
 2126      656D6170 
 2126      686F7265 
 2127 0186 0000     		.space	2
 2128              	.LC23:
 2129 0188 42656E63 		.ascii	"Benchmark, virtual timers set/reset\000"
ARM GAS  /tmp/cc80sxMg.s 			page 40


 2129      686D6172 
 2129      6B2C2076 
 2129      69727475 
 2129      616C2074 
 2130              	.LC24:
 2131 01ac 42656E63 		.ascii	"Benchmark, I/O Queues throughput\000"
 2131      686D6172 
 2131      6B2C2049 
 2131      2F4F2051 
 2131      75657565 
 2132 01cd 000000   		.space	3
 2133              	.LC25:
 2134 01d0 42656E63 		.ascii	"Benchmark, round robin context switching\000"
 2134      686D6172 
 2134      6B2C2072 
 2134      6F756E64 
 2134      20726F62 
 2135 01f9 000000   		.space	3
 2136              	.LC26:
 2137 01fc 42656E63 		.ascii	"Benchmark, mass reschedule, 5 threads\000"
 2137      686D6172 
 2137      6B2C206D 
 2137      61737320 
 2137      72657363 
 2138 0222 0000     		.space	2
 2139              	.LC27:
 2140 0224 42656E63 		.ascii	"Benchmark, threads, create only\000"
 2140      686D6172 
 2140      6B2C2074 
 2140      68726561 
 2140      64732C20 
 2141              	.LC28:
 2142 0244 42656E63 		.ascii	"Benchmark, threads, full cycle\000"
 2142      686D6172 
 2142      6B2C2074 
 2142      68726561 
 2142      64732C20 
 2143 0263 00       		.space	1
 2144              	.LC29:
 2145 0264 42656E63 		.ascii	"Benchmark, context switch\000"
 2145      686D6172 
 2145      6B2C2063 
 2145      6F6E7465 
 2145      78742073 
 2146 027e 0000     		.space	2
 2147              	.LC30:
 2148 0280 42656E63 		.ascii	"Benchmark, messages #3\000"
 2148      686D6172 
 2148      6B2C206D 
 2148      65737361 
 2148      67657320 
 2149 0297 00       		.space	1
 2150              	.LC31:
 2151 0298 42656E63 		.ascii	"Benchmark, messages #2\000"
 2151      686D6172 
 2151      6B2C206D 
 2151      65737361 
ARM GAS  /tmp/cc80sxMg.s 			page 41


 2151      67657320 
 2152 02af 00       		.space	1
 2153              	.LC32:
 2154 02b0 42656E63 		.ascii	"Benchmark, messages #1\000"
 2154      686D6172 
 2154      6B2C206D 
 2154      65737361 
 2154      67657320 
 2155 02c7 00       		.section	.bss.iq.4945,"aw",%nobits
 2156              		.align	2
 2157              		.set	.LANCHOR1,. + 0
 2158              		.type	iq.4945, %object
 2159              		.size	iq.4945, 36
 2160              	iq.4945:
 2161 0000 00000000 		.space	36
 2161      00000000 
 2161      00000000 
 2161      00000000 
 2161      00000000 
 2162              		.section	.bss.sem1,"aw",%nobits
 2163              		.align	2
 2164              		.set	.LANCHOR0,. + 0
 2165              		.type	sem1, %object
 2166              		.size	sem1, 12
 2167              	sem1:
 2168 0000 00000000 		.space	12
 2168      00000000 
 2168      00000000 
 2169              		.section	.bss.mtx1,"aw",%nobits
 2170              		.align	2
 2171              		.set	.LANCHOR5,. + 0
 2172              		.type	mtx1, %object
 2173              		.size	mtx1, 16
 2174              	mtx1:
 2175 0000 00000000 		.space	16
 2175      00000000 
 2175      00000000 
 2175      00000000 
 2176              		.section	.rodata.testbmk1,"a",%progbits
 2177              		.align	2
 2178              		.type	testbmk1, %object
 2179              		.size	testbmk1, 16
 2180              	testbmk1:
 2181 0000 B0020000 		.word	.LC32
 2182 0004 00000000 		.word	0
 2183 0008 00000000 		.word	0
 2184 000c 00000000 		.word	bmk1_execute
 2185              		.section	.rodata.testbmk11,"a",%progbits
 2186              		.align	2
 2187              		.type	testbmk11, %object
 2188              		.size	testbmk11, 16
 2189              	testbmk11:
 2190 0000 64010000 		.word	.LC22
 2191 0004 00000000 		.word	bmk11_setup
 2192 0008 00000000 		.word	0
 2193 000c 00000000 		.word	bmk11_execute
 2194              		.section	.rodata.testbmk12,"a",%progbits
ARM GAS  /tmp/cc80sxMg.s 			page 42


 2195              		.align	2
 2196              		.type	testbmk12, %object
 2197              		.size	testbmk12, 16
 2198              	testbmk12:
 2199 0000 44010000 		.word	.LC21
 2200 0004 00000000 		.word	bmk12_setup
 2201 0008 00000000 		.word	0
 2202 000c 00000000 		.word	bmk12_execute
 2203              		.section	.rodata.testbmk13,"a",%progbits
 2204              		.align	2
 2205              		.type	testbmk13, %object
 2206              		.size	testbmk13, 16
 2207              	testbmk13:
 2208 0000 28010000 		.word	.LC20
 2209 0004 00000000 		.word	0
 2210 0008 00000000 		.word	0
 2211 000c 00000000 		.word	bmk13_execute
 2212              		.section	.rodata.testbmk5,"a",%progbits
 2213              		.align	2
 2214              		.type	testbmk5, %object
 2215              		.size	testbmk5, 16
 2216              	testbmk5:
 2217 0000 44020000 		.word	.LC28
 2218 0004 00000000 		.word	0
 2219 0008 00000000 		.word	0
 2220 000c 00000000 		.word	bmk5_execute
 2221              		.section	.rodata.testbmk9,"a",%progbits
 2222              		.align	2
 2223              		.type	testbmk9, %object
 2224              		.size	testbmk9, 16
 2225              	testbmk9:
 2226 0000 AC010000 		.word	.LC24
 2227 0004 00000000 		.word	0
 2228 0008 00000000 		.word	0
 2229 000c 00000000 		.word	bmk9_execute
 2230              		.section	.rodata.testbmk7,"a",%progbits
 2231              		.align	2
 2232              		.type	testbmk7, %object
 2233              		.size	testbmk7, 16
 2234              	testbmk7:
 2235 0000 FC010000 		.word	.LC26
 2236 0004 00000000 		.word	bmk7_setup
 2237 0008 00000000 		.word	0
 2238 000c 00000000 		.word	bmk7_execute
 2239              		.text
 2240              	.Letext0:
 2241              		.file 2 "/opt/ARM/lib/gcc/arm-none-eabi/4.8.4/include/stddef.h"
 2242              		.file 3 "/opt/ARM/arm-none-eabi/include/machine/_default_types.h"
 2243              		.file 4 "/opt/ARM/arm-none-eabi/include/stdint.h"
 2244              		.file 5 "../../os/ports/GCC/ARMCMx/chtypes.h"
 2245              		.file 6 "../../os/kernel/include/chlists.h"
 2246              		.file 7 "../../os/kernel/include/chthreads.h"
 2247              		.file 8 "../../os/ports/GCC/ARMCMx/chcore_v7m.h"
 2248              		.file 9 "../../os/kernel/include/chvt.h"
 2249              		.file 10 "../../os/kernel/include/chschd.h"
 2250              		.file 11 "../../os/kernel/include/chsem.h"
 2251              		.file 12 "../../os/kernel/include/chmtx.h"
ARM GAS  /tmp/cc80sxMg.s 			page 43


 2252              		.file 13 "../../os/kernel/include/chqueues.h"
 2253              		.file 14 "../../test/test.h"
 2254              		.file 15 "../../os/kernel/include/chmsg.h"